(dp0
S'class_sl'
p1
(dp2
S'tongue'
p3
(I8
I17
tp4
sS'gut'
p5
(I0
I8
tp6
ssS'class_hierarchy'
p7
(dp8
g3
(lp9
S'tongue_subcl'
p10
asg5
(lp11
S'gut_subcl'
p12
assS'feats'
p13
(dp14
S'g__Roseburia'
p15
(lp16
F14614.25172765379
aF2452.7337761880426
aF552.242102937928
aF11605.145413870247
aF22024.678253947197
aF721.4139713839124
aF9647.60840865238
aF13098.89072456927
aF0.0
aF0.0
aF0.0
aF0.0
aF0.0
aF137.70311209033324
aF0.0
aF0.0
aF0.0
asS'g__Unassigned_unclassified'
p17
(lp18
F113.28877308258751
aF0.0
aF110.4484205875856
aF699.1051454138703
aF0.0
aF120.23566189731875
aF101.55377272265665
aF0.0
aF472.8132387706856
aF0.0
aF0.0
aF0.0
aF0.0
aF275.40622418066647
aF509.3594804533299
aF235.7100766057749
aF0.0
asS'g__Paraprevotella'
p19
(lp20
F8949.813073524414
aF37404.19008686765
aF4307.488402915838
aF0.0
aF0.0
aF14428.27942767825
aF0.0
aF0.0
aF0.0
aF0.0
aF0.0
aF0.0
aF0.0
aF0.0
aF0.0
aF0.0
aF0.0
asS'g___Mogibacteriaceae__unclassified'
p21
(lp22
F0.0
aF0.0
aF0.0
aF0.0
aF0.0
aF0.0
aF304.66131816796997
aF0.0
aF472.8132387706856
aF401.1231448054553
aF3254.97287522604
aF505.8168942842691
aF3681.5462494247586
aF550.8124483613329
aF1146.0588310199923
aF589.2751915144372
aF0.0
asS'g__Porphyromonas'
p23
(lp24
F113.28877308258751
aF0.0
aF2098.5199911641266
aF0.0
aF0.0
aF0.0
aF0.0
aF826.0561718196838
aF90780.14184397164
aF2005.6157240272764
aF21699.8191681736
aF10622.154779969651
aF1840.7731247123793
aF73395.75874414762
aF36801.22246275309
aF39010.01767825575
aF17895.18534299105
asS'g__Fusobacterium'
p25
(lp26
F226.57754616517502
aF0.0
aF3313.452617627568
aF139.82102908277406
aF0.0
aF360.7069856919562
aF0.0
aF0.0
aF81323.87706855792
aF72603.28920978741
aF186618.44484629293
aF22761.76024279211
aF52462.03405430281
aF130955.65959790691
aF83662.29466445943
aF81555.68650559812
aF89475.92671495526
asS'g__Aggregatibacter'
p27
(lp28
F0.0
aF0.0
aF0.0
aF0.0
aF0.0
aF0.0
aF0.0
aF0.0
aF472.8132387706856
aF2807.862013638187
aF2531.645569620253
aF8093.070308548306
aF0.0
aF688.5155604516661
aF636.6993505666624
aF1414.2604596346494
aF1704.303365999148
asS'g__Prevotella'
p29
(lp30
F226.57754616517502
aF102.19724067450178
aF10161.254694057876
aF139.82102908277406
aF0.0
aF360.7069856919562
aF0.0
aF7788.529620014161
aF56264.775413711584
aF109907.74167669476
aF190235.08137432186
aF69296.91451694486
aF369075.0115048321
aF41724.04296337097
aF41512.797656946386
aF302651.738361815
aF78824.03067746059
asS'g__Alcaligenaceae_unclassified'
p31
(lp32
F453.15509233035004
aF715.3806847215125
aF110.4484205875856
aF838.9261744966443
aF398.0363539869975
aF0.0
aF0.0
aF0.0
aF0.0
aF0.0
aF0.0
aF0.0
aF0.0
aF0.0
aF0.0
aF0.0
aF0.0
asS'g__Ruminococcus'
p33
(lp34
F339.86631924776253
aF12468.063362289218
aF883.5873647006848
aF21392.61744966443
aF32904.33859625846
aF1442.8279427678249
aF8428.9631359805
aF2124.144441822044
aF0.0
aF0.0
aF0.0
aF505.8168942842691
aF0.0
aF0.0
aF0.0
aF0.0
aF0.0
asS'g__Oscillospira'
p35
(lp36
F11328.87730825875
aF13490.035769034235
aF9277.667329357191
aF26146.53243847875
aF14727.345097518908
aF10700.973908861368
aF15537.727226566467
aF21949.492565494453
aF0.0
aF401.1231448054553
aF0.0
aF0.0
aF0.0
aF0.0
aF0.0
aF0.0
aF0.0
asS'g__Bacilli_unclassified'
p37
(lp38
F0.0
aF0.0
aF0.0
aF0.0
aF0.0
aF0.0
aF0.0
aF0.0
aF472.8132387706856
aF0.0
aF361.6636528028933
aF0.0
aF460.1932811780948
aF1101.6248967226659
aF0.0
aF589.2751915144372
aF0.0
asS'g__Coprococcus'
p39
(lp40
F2265.7754616517504
aF4598.87583035258
aF6406.008394079965
aF3775.1677852349
aF2388.218123921985
aF2645.1845617410127
aF6397.887681527369
aF472.0320981826764
aF0.0
aF401.1231448054553
aF0.0
aF0.0
aF0.0
aF0.0
aF0.0
aF0.0
aF0.0
asS'g__Bilophila'
p41
(lp42
F0.0
aF0.0
aF0.0
aF3775.1677852349
aF1990.1817699349876
aF240.4713237946375
aF1117.0914999492231
aF6962.473448194477
aF0.0
aF0.0
aF0.0
aF0.0
aF0.0
aF0.0
aF0.0
aF0.0
aF0.0
asS'g__Holdemania'
p43
(lp44
F453.15509233035004
aF715.3806847215125
aF0.0
aF559.2841163310962
aF530.71513864933
aF120.23566189731875
aF0.0
aF0.0
aF0.0
aF0.0
aF0.0
aF0.0
aF0.0
aF0.0
aF0.0
aF0.0
aF0.0
asS'g__Parabacteroides'
p45
(lp46
F0.0
aF0.0
aF0.0
aF71448.54586129755
aF27331.829640440497
aF0.0
aF23154.260180765716
aF14396.978994571631
aF472.8132387706856
aF0.0
aF0.0
aF0.0
aF0.0
aF0.0
aF254.67974022666496
aF117.85503830288745
aF0.0
asS'g__Staphylococcus'
p47
(lp48
F0.0
aF0.0
aF0.0
aF699.1051454138703
aF132.6787846623325
aF0.0
aF406.2150908906266
aF0.0
aF945.6264775413712
aF0.0
aF1084.99095840868
aF0.0
aF460.1932811780948
aF0.0
aF0.0
aF117.85503830288745
aF426.075841499787
asS'g__Lactobacillales_unclassified'
p49
(lp50
F0.0
aF102.19724067450178
aF0.0
aF0.0
aF0.0
aF120.23566189731875
aF101.55377272265665
aF0.0
aF23640.66193853428
aF28078.62013638187
aF11934.90054249548
aF14668.689934243805
aF12425.21859180856
aF19829.248141007985
aF4202.215713739972
aF4124.9263406010605
aF17895.18534299105
asS'g__Erysipelotrichaceae_unclassified'
p51
(lp52
F8383.369208111475
aF4905.467552376085
aF3644.797879390325
aF1957.4944071588368
aF1061.43027729866
aF0.0
aF4163.704681628922
aF118.0080245456691
aF0.0
aF0.0
aF361.6636528028933
aF0.0
aF0.0
aF0.0
aF0.0
aF0.0
aF0.0
asS'g__Leptotrichia'
p53
(lp54
F0.0
aF0.0
aF0.0
aF0.0
aF0.0
aF0.0
aF0.0
aF0.0
aF3309.692671394799
aF3208.9851584436424
aF10126.582278481012
aF2529.0844714213454
aF4601.932811780948
aF12806.389424400992
aF9550.490258499936
aF12492.63406010607
aF8095.440988495952
asS'g__Blautia'
p55
(lp56
F15860.428231562251
aF27695.452222789983
aF14689.639938148885
aF4334.451901565996
aF3980.3635398699753
aF6612.961404352532
aF5483.9037270234585
aF7198.489497285816
aF0.0
aF0.0
aF0.0
aF0.0
aF0.0
aF0.0
aF0.0
aF0.0
aF0.0
asS'g__Ruminococcaceae_unclassified'
p57
(lp58
F42370.00113288773
aF26060.296371997956
aF41639.05456151977
aF65156.59955257271
aF69391.0043783999
aF18035.34928459781
aF79618.15781456282
aF107269.29431201321
aF945.6264775413712
aF802.2462896109106
aF0.0
aF0.0
aF0.0
aF137.70311209033324
aF0.0
aF117.85503830288745
aF426.075841499787
asS'g__Tannerella'
p59
(lp60
F0.0
aF0.0
aF0.0
aF0.0
aF0.0
aF0.0
aF0.0
aF0.0
aF0.0
aF401.1231448054553
aF0.0
aF505.8168942842691
aF0.0
aF275.40622418066647
aF764.0392206799949
aF353.56511490866234
aF0.0
asS'g__Desulfovibrio'
p61
(lp62
F3511.951965560213
aF3781.297904956566
aF9388.115749944776
aF3914.9888143176736
aF3449.648401220645
aF8296.260670914993
aF2132.6292271757898
aF4956.337030918102
aF0.0
aF0.0
aF0.0
aF0.0
aF0.0
aF0.0
aF0.0
aF0.0
aF0.0
asS'g__Streptococcus'
p63
(lp64
F113.28877308258751
aF510.98620337250895
aF441.7936823503424
aF279.6420581655481
aF530.71513864933
aF3486.834195022244
aF1218.6452726718799
aF0.0
aF101654.8463356974
aF187324.50862414762
aF116455.69620253165
aF211937.27870510877
aF122871.60607455132
aF108923.16166345359
aF55902.20297975296
aF88391.27872716558
aF221985.513421389
asS'g__Lachnospira'
p65
(lp66
F51659.680525659904
aF70311.70158405723
aF75767.61652308372
aF49077.1812080537
aF94201.93711025608
aF15750.871708548757
aF28739.717680511832
aF1534.1043190936982
aF0.0
aF0.0
aF0.0
aF0.0
aF0.0
aF0.0
aF0.0
aF0.0
aF0.0
asS'g__Bacteroides'
p67
(lp68
F627393.2253313697
aF546346.4486458865
aF599403.578528827
aF490631.99105145416
aF487992.56998805894
aF654202.2363833113
aF609017.9750177719
aF675831.956573047
aF4255.319148936171
aF3610.108303249098
aF1446.6546112115732
aF4552.352048558422
aF1380.5798435342845
aF963.9217846323327
aF1273.3987011333247
aF1060.695344725987
aF2130.379207498935
asS'g__Moryella'
p69
(lp70
F0.0
aF0.0
aF0.0
aF0.0
aF0.0
aF0.0
aF0.0
aF0.0
aF0.0
aF401.1231448054553
aF2531.645569620253
aF4046.535154274153
aF3221.3529682466637
aF550.8124483613329
aF1782.7581815866547
aF942.8403064230996
aF7243.289305496379
asS'g__Lachnospiraceae_unclassified'
p71
(lp72
F67406.81998413957
aF75830.35258048032
aF62072.01237022311
aF56627.516778523495
aF95794.08252620407
aF39557.53276421787
aF80024.37290545343
aF46259.14562190229
aF8037.825059101655
aF3208.9851584436424
aF3978.3001808318263
aF6069.80273141123
aF7823.285780027612
aF9363.81162214266
aF10951.228829746593
aF11431.938715380084
aF3834.682573498083
asS'g__Anaerostipes'
p73
(lp74
F566.4438654129376
aF204.39448134900357
aF552.242102937928
aF56627.516778523495
aF23086.108531245856
aF1322.5922808705063
aF22138.72245353915
aF118.0080245456691
aF0.0
aF0.0
aF0.0
aF0.0
aF0.0
aF0.0
aF0.0
aF0.0
aF0.0
asS'g__Christensenellaceae_unclassified'
p75
(lp76
F0.0
aF0.0
aF0.0
aF699.1051454138703
aF663.3939233116625
aF0.0
aF304.66131816796997
aF0.0
aF0.0
aF0.0
aF0.0
aF0.0
aF0.0
aF0.0
aF0.0
aF0.0
aF0.0
asS'g__Peptoniphilus'
p77
(lp78
F0.0
aF0.0
aF0.0
aF279.6420581655481
aF132.6787846623325
aF0.0
aF0.0
aF1298.08827000236
aF0.0
aF401.1231448054553
aF361.6636528028933
aF0.0
aF0.0
aF0.0
aF127.33987011333248
aF0.0
aF0.0
asS'g__Anaerococcus'
p79
(lp80
F113.28877308258751
aF0.0
aF441.7936823503424
aF139.82102908277406
aF0.0
aF0.0
aF101.55377272265665
aF472.0320981826764
aF0.0
aF401.1231448054553
aF0.0
aF0.0
aF0.0
aF0.0
aF0.0
aF0.0
aF0.0
asS'g__Neisseria'
p81
(lp82
F339.86631924776253
aF0.0
aF552.242102937928
aF0.0
aF0.0
aF240.4713237946375
aF101.55377272265665
aF118.0080245456691
aF217021.27659574468
aF8423.58604091456
aF175045.20795660035
aF261001.51745068285
aF38656.23561895997
aF265904.70944643347
aF480453.32993760344
aF164997.05362404243
aF204090.32807839796
asS'g__Rikenellaceae_unclassified'
p83
(lp84
F566.4438654129376
aF613.1834440470107
aF441.7936823503424
aF48937.36017897092
aF29720.04776436248
aF0.0
aF38488.87986188687
aF15341.043190936984
aF0.0
aF0.0
aF0.0
aF0.0
aF0.0
aF137.70311209033324
aF0.0
aF117.85503830288745
aF0.0
asS'g___Barnesiellaceae__unclassified'
p85
(lp86
F0.0
aF0.0
aF0.0
aF1538.0313199105146
aF1990.1817699349876
aF0.0
aF812.4301817812532
aF0.0
aF0.0
aF0.0
aF0.0
aF0.0
aF0.0
aF0.0
aF0.0
aF0.0
aF0.0
asS'g__Enterobacteriaceae_unclassified'
p87
(lp88
F21185.000566443865
aF0.0
aF3313.452617627568
aF0.0
aF663.3939233116625
aF28495.851869664544
aF304.66131816796997
aF7316.497521831484
aF0.0
aF0.0
aF361.6636528028933
aF0.0
aF0.0
aF137.70311209033324
aF0.0
aF0.0
aF0.0
asS'g__Gemellaceae_unclassified'
p89
(lp90
F0.0
aF0.0
aF110.4484205875856
aF0.0
aF0.0
aF0.0
aF101.55377272265665
aF0.0
aF7565.011820330969
aF11231.448054552748
aF15913.200723327305
aF11127.97167425392
aF7363.092498849517
aF4957.312035251996
aF2419.457532153317
aF1178.5503830288744
aF6817.213463996592
asS'g__Eikenella'
p91
(lp92
F0.0
aF0.0
aF0.0
aF0.0
aF0.0
aF0.0
aF0.0
aF0.0
aF945.6264775413712
aF0.0
aF0.0
aF505.8168942842691
aF0.0
aF550.8124483613329
aF891.3790907933274
aF0.0
aF0.0
asS'g__Neisseriaceae_unclassified'
p93
(lp94
F0.0
aF0.0
aF0.0
aF0.0
aF0.0
aF0.0
aF0.0
aF0.0
aF472.8132387706856
aF0.0
aF3254.97287522604
aF8598.887202832575
aF0.0
aF413.10933627099973
aF1910.0980516999873
aF471.4201532115498
aF4686.8342564976565
asS'g__Atopobium'
p95
(lp96
F0.0
aF0.0
aF0.0
aF0.0
aF0.0
aF0.0
aF0.0
aF0.0
aF472.8132387706856
aF401.1231448054553
aF361.6636528028933
aF505.8168942842691
aF2761.159687068569
aF1101.6248967226659
aF891.3790907933274
aF1767.8255745433119
aF0.0
asS'g__Finegoldia'
p97
(lp98
F113.28877308258751
aF0.0
aF110.4484205875856
aF0.0
aF0.0
aF0.0
aF0.0
aF1298.08827000236
aF0.0
aF0.0
aF0.0
aF0.0
aF0.0
aF0.0
aF127.33987011333248
aF0.0
aF0.0
asS'g__Peptostreptococcaceae_unclassified'
p99
(lp100
F0.0
aF0.0
aF0.0
aF0.0
aF0.0
aF120.23566189731875
aF0.0
aF0.0
aF945.6264775413712
aF0.0
aF0.0
aF0.0
aF0.0
aF1377.0311209033323
aF2164.7777919266523
aF0.0
aF0.0
asS'g___Weeksellaceae__unclassified'
p101
(lp102
F0.0
aF0.0
aF0.0
aF0.0
aF0.0
aF0.0
aF0.0
aF0.0
aF472.8132387706856
aF1604.4925792218212
aF361.6636528028933
aF505.8168942842691
aF0.0
aF963.9217846323327
aF1018.7189609066598
aF1532.115497937537
aF426.075841499787
asS'g__Butyricimonas'
p103
(lp104
F0.0
aF0.0
aF0.0
aF2237.136465324385
aF1724.8242006103226
aF0.0
aF1421.752818117193
aF0.0
aF0.0
aF0.0
aF0.0
aF0.0
aF0.0
aF0.0
aF0.0
aF0.0
aF0.0
asS'g__Campylobacter'
p105
(lp106
F0.0
aF0.0
aF220.8968411751712
aF0.0
aF132.6787846623325
aF0.0
aF203.1075454453133
aF0.0
aF3309.692671394799
aF3610.108303249098
aF6509.94575045208
aF5058.168942842691
aF9664.058904739992
aF4819.608923161663
aF9677.830128613268
aF13199.764289923394
aF16616.957818491694
asS'g__Haemophilus'
p107
(lp108
F0.0
aF102.19724067450178
aF0.0
aF0.0
aF132.6787846623325
aF601.1783094865938
aF507.7688636132832
aF354.0240736370073
aF268557.91962174943
aF231849.17769755315
aF150452.0795660036
aF252402.6302478503
aF125632.76576161988
aF207656.29303222251
aF147714.2493314657
aF100648.20271066588
aF167021.7298679165
asS'g__Phascolarctobacterium'
p109
(lp110
F18805.936331709527
aF51814.001021972406
aF17671.747294013698
aF13003.355704697988
aF11410.375480960596
aF69977.15522423951
aF14725.297044785213
aF31154.118480056644
aF0.0
aF0.0
aF0.0
aF0.0
aF0.0
aF0.0
aF0.0
aF0.0
aF0.0
asS'g__Faecalibacterium'
p111
(lp112
F67406.81998413957
aF58048.032703117016
aF67925.77866136514
aF2656.599552572707
aF31179.514395648137
aF601.1783094865938
aF7210.317863308622
aF2832.1925890960583
aF0.0
aF0.0
aF0.0
aF0.0
aF0.0
aF0.0
aF0.0
aF0.0
aF0.0
asS'g__Veillonella'
p113
(lp114
F0.0
aF0.0
aF220.8968411751712
aF139.82102908277406
aF0.0
aF360.7069856919562
aF710.8764090585966
aF118.0080245456691
aF51536.64302600473
aF60168.47172081829
aF56419.52983725136
aF56145.67526555387
aF144500.69028992177
aF42412.558523822634
aF44950.97415000637
aF68945.19740718916
aF64763.52790796762
asS'g__Corynebacterium'
p115
(lp116
F113.28877308258751
aF0.0
aF110.4484205875856
aF0.0
aF0.0
aF120.23566189731875
aF203.1075454453133
aF944.0641963653528
aF472.8132387706856
aF1604.4925792218212
aF0.0
aF0.0
aF460.1932811780948
aF413.10933627099973
aF254.67974022666496
aF0.0
aF1704.303365999148
asS'g__Mogibacterium'
p117
(lp118
F0.0
aF0.0
aF0.0
aF0.0
aF0.0
aF0.0
aF0.0
aF236.0160490913382
aF0.0
aF0.0
aF1084.99095840868
aF0.0
aF3221.3529682466637
aF550.8124483613329
aF382.0196103399974
aF117.85503830288745
aF2130.379207498935
asS'g__Clostridium'
p119
(lp120
F1925.9091424039877
aF1124.1696474195196
aF3976.1431411530816
aF838.9261744966443
aF1857.502985272655
aF0.0
aF1929.5216817304763
aF0.0
aF0.0
aF0.0
aF0.0
aF0.0
aF0.0
aF0.0
aF0.0
aF0.0
aF0.0
asS'g__Capnocytophaga'
p121
(lp122
F0.0
aF0.0
aF0.0
aF0.0
aF0.0
aF0.0
aF0.0
aF0.0
aF472.8132387706856
aF401.1231448054553
aF0.0
aF0.0
aF920.3865623561896
aF826.2186725419995
aF254.67974022666496
aF1296.405421331762
aF2130.379207498935
asS'g__Lautropia'
p123
(lp124
F0.0
aF0.0
aF0.0
aF0.0
aF0.0
aF0.0
aF0.0
aF0.0
aF0.0
aF401.1231448054553
aF0.0
aF0.0
aF0.0
aF826.2186725419995
aF2801.4771424933147
aF235.7100766057749
aF2130.379207498935
asS'g__Dorea'
p125
(lp126
F1925.9091424039877
aF2248.339294839039
aF2982.1073558648113
aF978.7472035794184
aF1061.43027729866
aF721.4139713839124
aF710.8764090585966
aF2714.1845645503895
aF0.0
aF0.0
aF0.0
aF0.0
aF0.0
aF0.0
aF0.0
aF0.0
aF0.0
asS'g__Rothia'
p127
(lp128
F0.0
aF102.19724067450178
aF0.0
aF0.0
aF0.0
aF120.23566189731875
aF0.0
aF0.0
aF54846.335697399525
aF83433.6141195347
aF13019.89150090416
aF34395.5488113303
aF24390.243902439026
aF38419.16827320297
aF16936.20272507322
aF5303.476723629935
aF41329.35662547933
asS'g__Oribacterium'
p129
(lp130
F0.0
aF0.0
aF0.0
aF0.0
aF0.0
aF0.0
aF0.0
aF0.0
aF6146.572104018913
aF5615.724027276374
aF2893.3092224231464
aF1517.4506828528074
aF3221.3529682466637
aF6885.155604516662
aF12097.287660766586
aF2828.5209192692987
aF7243.289305496379
asS'g___Prevotella_'
p131
(lp132
F113.28877308258751
aF0.0
aF110.4484205875856
aF0.0
aF0.0
aF0.0
aF0.0
aF0.0
aF1891.2529550827423
aF1604.4925792218212
aF1446.6546112115732
aF0.0
aF21168.89093419236
aF6609.749380335996
aF2419.457532153317
aF77312.90512669417
aF4686.8342564976565
asS'g__Streptophyta_unclassified'
p133
(lp134
F0.0
aF0.0
aF110.4484205875856
aF139.82102908277406
aF132.6787846623325
aF0.0
aF304.66131816796997
aF0.0
aF945.6264775413712
aF131167.2683513839
aF2893.3092224231464
aF505.8168942842691
aF0.0
aF137.70311209033324
aF0.0
aF117.85503830288745
aF426.075841499787
asS'g__Akkermansia'
p135
(lp136
F1699.3315962388126
aF5314.256515074093
aF37883.80826154186
aF1258.3892617449665
aF0.0
aF105085.96849825658
aF304.66131816796997
aF0.0
aF0.0
aF0.0
aF0.0
aF0.0
aF460.1932811780948
aF0.0
aF0.0
aF0.0
aF0.0
asS'g__Parvimonas'
p137
(lp138
F0.0
aF0.0
aF0.0
aF0.0
aF0.0
aF0.0
aF0.0
aF0.0
aF0.0
aF802.2462896109106
aF5063.291139240506
aF505.8168942842691
aF0.0
aF550.8124483613329
aF254.67974022666496
aF824.9852681202121
aF852.151682999574
asS'g__Acidaminococcus'
p139
(lp140
F0.0
aF0.0
aF0.0
aF279.6420581655481
aF398.0363539869975
aF0.0
aF609.3226363359399
aF0.0
aF0.0
aF0.0
aF0.0
aF0.0
aF0.0
aF0.0
aF0.0
aF0.0
aF0.0
asS'g__Turicibacter'
p141
(lp142
F339.86631924776253
aF204.39448134900357
aF110.4484205875856
aF559.2841163310962
aF0.0
aF120.23566189731875
aF101.55377272265665
aF118.0080245456691
aF0.0
aF0.0
aF0.0
aF0.0
aF0.0
aF0.0
aF0.0
aF0.0
aF0.0
asS'g__Clostridiaceae_unclassified'
p143
(lp144
F0.0
aF102.19724067450178
aF110.4484205875856
aF1118.5682326621925
aF796.072707973995
aF2524.9488998436937
aF406.2150908906266
aF118.0080245456691
aF0.0
aF0.0
aF0.0
aF0.0
aF0.0
aF0.0
aF0.0
aF0.0
aF0.0
asS'g__mitochondria_unclassified'
p145
(lp146
F0.0
aF0.0
aF0.0
aF0.0
aF132.6787846623325
aF0.0
aF101.55377272265665
aF0.0
aF0.0
aF22462.896109105495
aF0.0
aF0.0
aF0.0
aF0.0
aF0.0
aF117.85503830288745
aF426.075841499787
asS'g__Comamonadaceae_unclassified'
p147
(lp148
F12008.609946754275
aF14716.402657128257
aF3865.694720565496
aF12863.534675615214
aF5705.187740480298
aF120.23566189731875
aF101.55377272265665
aF590.0401227283455
aF945.6264775413712
aF0.0
aF361.6636528028933
aF0.0
aF0.0
aF0.0
aF127.33987011333248
aF117.85503830288745
aF852.151682999574
asS'g__Dialister'
p149
(lp150
F0.0
aF0.0
aF552.242102937928
aF0.0
aF0.0
aF0.0
aF0.0
aF1298.08827000236
aF0.0
aF802.2462896109106
aF0.0
aF0.0
aF0.0
aF0.0
aF127.33987011333248
aF471.4201532115498
aF0.0
asS'g___Ruminococcus_'
p151
(lp152
F339.86631924776253
aF306.5917220235053
aF552.242102937928
aF419.46308724832215
aF796.072707973995
aF240.4713237946375
aF609.3226363359399
aF5546.377153646447
aF0.0
aF0.0
aF0.0
aF0.0
aF0.0
aF0.0
aF0.0
aF0.0
aF0.0
asS'g__Clostridiales_unclassified'
p153
(lp154
F15860.428231562251
aF36484.414920797135
aF13143.362049922687
aF37332.214765100674
aF26403.078147804168
aF12023.566189731875
aF29552.147862293084
aF17229.17158366769
aF1891.2529550827423
aF0.0
aF0.0
aF505.8168942842691
aF0.0
aF1652.437345083999
aF636.6993505666624
aF1649.9705362404243
aF1278.227524499361
asS'g__Granulicatella'
p155
(lp156
F0.0
aF0.0
aF0.0
aF0.0
aF0.0
aF0.0
aF0.0
aF0.0
aF472.8132387706856
aF2005.6157240272764
aF361.6636528028933
aF0.0
aF460.1932811780948
aF1790.1404571743321
aF636.6993505666624
aF824.9852681202121
aF852.151682999574
asS'g__Odoribacter'
p157
(lp158
F0.0
aF0.0
aF0.0
aF4753.914988814318
aF2918.933262571315
aF0.0
aF2234.1829998984463
aF0.0
aF0.0
aF0.0
aF0.0
aF0.0
aF0.0
aF0.0
aF0.0
aF0.0
aF0.0
asS'g__Bulleidia'
p159
(lp160
F0.0
aF0.0
aF0.0
aF0.0
aF0.0
aF0.0
aF0.0
aF0.0
aF945.6264775413712
aF401.1231448054553
aF2893.3092224231464
aF505.8168942842691
aF920.3865623561896
aF2340.952905535665
aF1146.0588310199923
aF5067.76664702416
aF426.075841499787
asS'g__Veillonellaceae_unclassified'
p161
(lp162
F793.0214115781125
aF919.7751660705161
aF220.8968411751712
aF0.0
aF0.0
aF0.0
aF0.0
aF0.0
aF0.0
aF0.0
aF723.3273056057866
aF0.0
aF4141.739530602854
aF137.70311209033324
aF0.0
aF2121.390689451974
aF1278.227524499361
asS'g__Actinomyces'
p163
(lp164
F0.0
aF102.19724067450178
aF110.4484205875856
aF0.0
aF0.0
aF0.0
aF0.0
aF0.0
aF4728.132387706856
aF15242.679502607301
aF7594.93670886076
aF10116.337885685381
aF31753.336401288543
aF6472.046268245662
aF19100.980516999873
aF3064.230995875074
aF16190.881976991905
asS'g__Selenomonas'
p165
(lp166
F0.0
aF0.0
aF0.0
aF0.0
aF0.0
aF0.0
aF0.0
aF0.0
aF0.0
aF0.0
aF0.0
aF0.0
aF0.0
aF275.40622418066647
aF1400.7385712466573
aF471.4201532115498
aF0.0
asS'g__Pseudomonas'
p167
(lp168
F0.0
aF102.19724067450178
aF331.3452617627568
aF0.0
aF132.6787846623325
aF0.0
aF101.55377272265665
aF0.0
aF1418.4397163120568
aF401.1231448054553
aF0.0
aF0.0
aF0.0
aF0.0
aF127.33987011333248
aF0.0
aF1704.303365999148
assS'subclass_sl'
p169
(dp170
g12
(I0
I8
tp171
sg10
(I8
I17
tp172
ssS'norm'
p173
F1000000.0
sS'cls'
p174
(dp175
S'class'
p176
(S'gut'
p177
S'gut'
p178
S'gut'
p179
S'gut'
p180
S'gut'
p181
S'gut'
p182
S'gut'
p183
g5
S'tongue'
p184
S'tongue'
p185
S'tongue'
p186
S'tongue'
p187
S'tongue'
p188
S'tongue'
p189
S'tongue'
p190
S'tongue'
p191
g3
tp192
sS'subclass'
p193
(lp194
S'gut_subcl'
p195
aS'gut_subcl'
p196
aS'gut_subcl'
p197
aS'gut_subcl'
p198
aS'gut_subcl'
p199
aS'gut_subcl'
p200
aS'gut_subcl'
p201
ag12
aS'tongue_subcl'
p202
aS'tongue_subcl'
p203
aS'tongue_subcl'
p204
aS'tongue_subcl'
p205
aS'tongue_subcl'
p206
aS'tongue_subcl'
p207
aS'tongue_subcl'
p208
aS'tongue_subcl'
p209
ag10
ass.