(dp0
S'class_sl'
p1
(dp2
S'Mild'
p3
(I0
I12
tp4
sS'Moderate'
p5
(I12
I24
tp6
ssS'class_hierarchy'
p7
(dp8
g3
(lp9
S'Mild_subcl'
p10
asg5
(lp11
S'Moderate_subcl'
p12
assS'feats'
p13
(dp14
S's__Parabacteroides_sp_CAG_409'
p15
(lp16
F0.0
aF0.0
aF0.0
aF0.0
aF223.91088206886857
aF0.0
aF0.0
aF0.0
aF0.0
aF0.0
aF0.0
aF0.0
aF0.0
aF0.0
aF0.0
aF0.0
aF0.0
aF24.00822761960524
aF0.0
aF0.0
aF0.0
aF0.0
aF0.0
aF0.0
asS's__Prevotella_sp_CAG_5226'
p17
(lp18
F0.0
aF17.900003580000714
aF0.0
aF0.0
aF0.0
aF0.0
aF0.0
aF0.0
aF0.0
aF0.0
aF0.0
aF0.0
aF0.0
aF0.0
aF0.0
aF0.0
aF0.0
aF0.0
aF0.0
aF0.0
aF0.0
aF0.0
aF0.0
aF18784.499222704857
asS's__Neisseria_bacilliformis'
p19
(lp20
F0.0
aF0.0
aF0.0
aF0.0
aF0.0
aF0.0
aF0.0
aF220.9780715526796
aF0.0
aF0.0
aF0.0
aF0.0
aF0.0
aF0.0
aF0.0
aF0.0
aF0.0
aF0.0
aF0.0
aF0.0
aF0.0
aF0.0
aF0.0
aF0.0
asS's__Veillonella_dispar'
p21
(lp22
F0.0
aF0.0
aF53.70001611000486
aF0.0
aF0.0
aF0.0
aF0.0
aF6195.488866216435
aF0.0
aF103.70264441743264
aF35.499978700012775
aF0.0
aF0.0
aF0.0
aF31.800003180000324
aF0.0
aF0.0
aF0.0
aF0.0
aF0.0
aF590.1575993816998
aF0.0
aF107.92488747905264
aF30.403721415501256
asS's__Gemella_haemolysans'
p23
(lp24
F0.0
aF0.0
aF228.60006858002072
aF0.0
aF0.0
aF0.0
aF0.0
aF0.0
aF0.0
aF0.0
aF0.0
aF12.700934788800451
aF0.0
aF0.0
aF0.0
aF0.0
aF0.0
aF0.0
aF0.0
aF0.0
aF0.0
aF0.0
aF0.0
aF0.0
asS's__Clostridium_citroniae'
p25
(lp26
F0.0
aF0.0
aF0.0
aF768.2997695100692
aF0.0
aF0.0
aF4.200483475648047
aF0.0
aF0.0
aF0.0
aF0.0
aF0.0
aF87.39995630002186
aF205.10311756738702
aF0.0
aF0.0
aF213.37965462507154
aF0.0
aF0.0
aF0.0
aF0.0
aF59.10754212237481
aF197.34550787411573
aF0.0
asS's__Dialister_invisus'
p27
(lp28
F0.0
aF0.0
aF0.0
aF5447.998365600491
aF0.0
aF0.0
aF0.0
aF0.0
aF0.0
aF0.0
aF0.0
aF0.0
aF0.0
aF0.0
aF0.0
aF0.0
aF0.0
aF0.0
aF0.0
aF0.0
aF0.0
aF0.0
aF0.0
aF0.0
asS's__Centipeda_periodontii'
p29
(lp30
F0.0
aF0.0
aF0.0
aF0.0
aF0.0
aF0.0
aF0.0
aF261.5924206021988
aF0.0
aF0.0
aF0.0
aF0.0
aF0.0
aF0.0
aF0.0
aF0.0
aF0.0
aF0.0
aF0.0
aF0.0
aF0.0
aF0.0
aF0.0
aF0.0
asS's__Cardiobacterium_valvarum'
p31
(lp32
F0.0
aF0.0
aF0.0
aF0.0
aF0.0
aF0.0
aF0.0
aF1566.4534279961113
aF0.0
aF0.0
aF0.0
aF0.0
aF0.0
aF0.0
aF0.0
aF0.0
aF0.0
aF0.0
aF0.0
aF0.0
aF0.0
aF0.0
aF0.0
aF0.0
asS's__Collinsella_aerofaciens'
p33
(lp34
F8720.83633466467
aF5517.101103420219
aF9065.40271962082
aF1293.9996118001166
aF2085.1013359249264
aF3464.3010392903116
aF0.0
aF0.0
aF13665.300000000007
aF5213.5329450901
aF26468.584118849525
aF13156.168293986433
aF3502.9982485008763
aF2904.444147551043
aF8305.200830520085
aF1370.699725860055
aF7194.385664168433
aF3355.5499469668257
aF9297.997210600837
aF8117.099188290081
aF767.6749250726873
aF5562.109725200935
aF0.0
aF4283.424291133235
asS's__Prevotella_sp_CAG_873'
p35
(lp36
F11.500311658445943
aF0.0
aF0.0
aF0.0
aF34691.1859916392
aF0.0
aF0.0
aF0.0
aF0.0
aF0.0
aF0.0
aF0.0
aF0.0
aF0.0
aF0.0
aF0.0
aF0.0
aF0.0
aF0.0
aF0.0
aF0.0
aF0.0
aF0.0
aF0.0
asS's__Dorea_longicatena'
p37
(lp38
F325.40881857898347
aF53.100010620002124
aF209.700062910019
aF1504.2995487101355
aF258.0125394094153
aF254.90007647002292
aF211.22431191830182
aF0.0
aF331.1000000000002
aF836.5213312939479
aF200.19987988007202
aF738.1543281585522
aF1001.9994990002507
aF334.40508295726096
aF1054.6001054600108
aF82.1999835600033
aF532.1986697634227
aF946.5243739029366
aF4608.398617480415
aF58.899994110000584
aF205.12001971392414
aF896.7144207600888
aF461.4064003159128
aF437.9536055213158
asS's__Slackia_isoflavoniconvertens'
p39
(lp40
F1541.0417622317566
aF0.0
aF181.70005451001646
aF0.0
aF138.30672170667495
aF0.0
aF0.0
aF0.0
aF0.0
aF284.6072574850658
aF0.0
aF1022.6752688997907
aF317.5998412000795
aF203.30309020697115
aF0.0
aF0.0
aF718.768316212442
aF0.0
aF1727.8994816301556
aF0.0
aF49.90487071538183
aF429.0547473857664
aF0.0
aF0.0
asS's__Roseburia_intestinalis'
p41
(lp42
F2335.863301895481
aF2516.2005032401003
aF3128.1009384302833
aF43175.78704726389
aF466.1226535609631
aF570.4001711200513
aF100610.98032383529
aF0.0
aF41.10000000000002
aF15441.893768291091
aF31761.880942871434
aF2046.7506408471656
aF1985.5990072004968
aF31906.5849800917
aF742.4000742400076
aF3511.699297660141
aF4799.491650233032
aF22577.43728775852
aF2360.9992917002123
aF15523.898447610154
aF1563.7526222559327
aF1264.1613069827708
aF67351.43124004395
aF497.560901454338
asS's__Prevotella_histicola'
p43
(lp44
F0.0
aF0.0
aF0.0
aF0.0
aF0.0
aF0.0
aF9.101047530570769
aF7322.286963984377
aF0.0
aF0.0
aF0.0
aF9.800721333090111
aF0.0
aF0.0
aF0.0
aF0.0
aF0.0
aF0.0
aF0.0
aF0.0
aF0.0
aF0.0
aF7.001614572320376
aF47.20577798722564
asS's__Intestinibacter_bartlettii'
p45
(lp46
F0.0
aF0.0
aF0.0
aF0.0
aF0.0
aF0.0
aF0.0
aF0.0
aF0.0
aF0.0
aF0.0
aF0.0
aF0.0
aF0.0
aF0.0
aF0.0
aF0.0
aF0.0
aF0.0
aF0.0
aF0.0
aF0.0
aF0.0
aF142.21740741066705
asS's__Streptococcus_sanguinis'
p47
(lp48
F110.50299463115451
aF179.20003584000713
aF144.00004320001304
aF0.0
aF0.0
aF0.0
aF0.0
aF6258.81123801039
aF0.0
aF0.0
aF1968.5988188407084
aF44.803297522697655
aF0.0
aF0.0
aF83.00000830000084
aF7.599998480000305
aF0.0
aF0.0
aF0.0
aF199.29998007000196
aF0.0
aF0.0
aF0.0
aF0.0
asS's__Firmicutes_bacterium_CAG_110'
p49
(lp50
F19.10051762402761
aF0.0
aF1494.8004484401354
aF123.0999630700111
aF2755.933938389406
aF1542.7004628101386
aF0.0
aF0.0
aF254065.70000000013
aF0.0
aF0.0
aF108.40797882724165
aF0.0
aF0.0
aF0.0
aF7.69999846000031
aF10926.979041276107
aF9956.41206241379
aF0.0
aF0.0
aF873.7852814434692
aF0.0
aF0.0
aF409.75015341877844
asS's__Streptococcus_mitis'
p51
(lp52
F433.0117346180082
aF167.9000335800067
aF469.90014097004257
aF0.0
aF0.0
aF435.5001306500392
aF0.0
aF23424.77597335139
aF6.900000000000003
aF0.0
aF657.2996056202365
aF691.1508687039363
aF24.499987750006127
aF30.60046512706993
aF169.20001692000173
aF50.79998984000204
aF0.0
aF12.704353782041107
aF0.0
aF153.69998463000152
aF111.61089322317862
aF0.0
aF411.29484459116264
aF982.3202359968859
asS's__Prevotella_jejuni'
p53
(lp54
F0.0
aF0.0
aF0.0
aF0.0
aF0.0
aF0.0
aF0.0
aF24518.062231386353
aF0.0
aF0.0
aF0.0
aF0.0
aF0.0
aF0.0
aF0.0
aF0.0
aF0.0
aF0.0
aF0.0
aF29.9999970000003
aF0.0
aF0.0
aF0.0
aF0.0
asS's__Firmicutes_bacterium_CAG_95'
p55
(lp56
F0.0
aF0.0
aF1753.2005259601588
aF0.0
aF4.700228431101752
aF126.00003780001133
aF0.0
aF0.0
aF0.0
aF17.900456461639774
aF0.0
aF0.0
aF0.0
aF0.0
aF0.0
aF0.0
aF0.0
aF0.0
aF0.0
aF0.0
aF108.41058087269322
aF0.0
aF0.0
aF0.0
asS's__Roseburia_faecis'
p57
(lp58
F35088.45089701931
aF20873.404174680833
aF125306.63759199134
aF209.99993700001892
aF5771.580498812243
aF40959.11228773368
aF66072.9049913645
aF420.1484384433021
aF4640.500000000002
aF96.10245061249061
aF52949.46823031905
aF57429.32679845234
aF58548.57072571465
aF135051.5527836023
aF58.700005870000595
aF4473.89910522018
aF9979.325282127817
aF24728.574482475145
aF18215.89453523164
aF22454.697754530225
aF2079.3029399669413
aF22927.225513975583
aF98855.59610046075
aF27806.703540513357
asS's__Actinomyces_graevenitzii'
p59
(lp60
F0.0
aF0.0
aF0.0
aF0.0
aF0.0
aF0.0
aF0.0
aF7211.747910536794
aF0.0
aF0.0
aF0.0
aF0.0
aF0.0
aF0.0
aF0.0
aF0.0
aF0.0
aF2.2007541984638137
aF0.0
aF0.0
aF5.3005173304914575
aF0.0
aF0.0
aF0.0
asS's__Prevotella_oulorum'
p61
(lp62
F0.0
aF0.0
aF0.0
aF0.0
aF0.0
aF0.0
aF0.0
aF13796.474294368201
aF0.0
aF0.0
aF0.0
aF0.0
aF0.0
aF0.0
aF0.0
aF0.0
aF0.0
aF0.0
aF0.0
aF0.0
aF0.0
aF0.0
aF0.0
aF0.0
asS's__Bifidobacterium_longum'
p63
(lp64
F897.0243093587836
aF1274.0002548000507
aF998.0002994000904
aF356.2998931100321
aF0.0
aF341.10010233003067
aF0.0
aF0.0
aF0.0
aF31.300798170353346
aF1346.3991921604845
aF0.0
aF492.7997536001233
aF392.1059600105921
aF2578.8002578800265
aF0.0
aF145.5543354334173
aF400.9374012474075
aF3005.2990984102703
aF99.09999009000099
aF0.0
aF90.81158755857246
aF0.0
aF215.0263192214727
asS's__Bacteroides_eggerthii'
p65
(lp66
F0.0
aF0.0
aF0.0
aF0.0
aF321.9156451003519
aF0.0
aF0.0
aF0.0
aF0.0
aF0.0
aF0.0
aF0.0
aF42746.37862681069
aF126.7019258692732
aF0.0
aF0.0
aF629.1348560417604
aF60.520740457754876
aF0.0
aF0.0
aF372.1363205048814
aF0.0
aF27617.568611321763
aF0.0
asS's__Capnocytophaga_gingivalis'
p67
(lp68
F0.0
aF0.0
aF0.0
aF0.0
aF0.0
aF0.0
aF0.0
aF11176.048497934322
aF0.0
aF0.0
aF0.0
aF0.0
aF0.0
aF0.0
aF0.0
aF0.0
aF0.0
aF0.0
aF0.0
aF0.0
aF0.0
aF0.0
aF0.0
aF0.0
asS's__Streptococcus_milleri'
p69
(lp70
F0.0
aF0.0
aF0.0
aF0.0
aF0.0
aF0.0
aF0.0
aF1238.6376106678492
aF0.0
aF0.0
aF0.0
aF0.0
aF0.0
aF0.0
aF0.0
aF0.0
aF0.0
aF0.0
aF0.0
aF0.0
aF0.0
aF0.0
aF0.0
aF96.11176407992339
asS's__Prevotella_oris'
p71
(lp72
F0.0
aF0.0
aF0.0
aF0.0
aF0.0
aF0.0
aF0.0
aF14815.734398963157
aF0.0
aF0.0
aF0.0
aF0.0
aF0.0
aF0.0
aF0.0
aF0.0
aF0.0
aF0.0
aF0.0
aF0.0
aF0.0
aF0.0
aF0.0
aF0.0
asS's__Streptococcus_oralis'
p73
(lp74
F0.0
aF466.60009332001863
aF82.50002475000747
aF0.0
aF0.0
aF0.0
aF0.0
aF4558.610557109828
aF0.0
aF0.0
aF63.99996160002303
aF135.10994409188513
aF0.0
aF0.0
aF120.90001209000124
aF0.0
aF0.0
aF0.0
aF0.0
aF0.0
aF85.70836513643734
aF0.0
aF27.006227636092877
aF378.8463707957854
asS's__Lawsonibacter_asaccharolyticus'
p75
(lp76
F161.2043686383901
aF0.0
aF0.0
aF676.7997969600609
aF0.0
aF429.70012891003864
aF1653.990374292081
aF0.0
aF272.40000000000015
aF297.20757879325924
aF0.0
aF171.81264541070217
aF0.0
aF721.1109608866055
aF0.0
aF0.0
aF851.7179463093572
aF220.07541984638138
aF396.99988090003575
aF7.899999210000079
aF75.00732071450174
aF0.0
aF0.0
aF0.0
asS's__Coprobacter_fastidiosus'
p77
(lp78
F0.0
aF0.0
aF0.0
aF14990.195502941351
aF0.0
aF615.2001845600553
aF0.0
aF0.0
aF0.0
aF0.0
aF0.0
aF0.0
aF1665.1991674004166
aF0.0
aF0.0
aF0.0
aF0.0
aF0.0
aF0.0
aF0.0
aF0.0
aF0.0
aF0.0
aF0.0
asS's__Corynebacterium_durum'
p79
(lp80
F0.0
aF0.0
aF0.0
aF0.0
aF0.0
aF0.0
aF0.0
aF5223.345407932623
aF0.0
aF0.0
aF0.0
aF0.0
aF0.0
aF0.0
aF0.0
aF0.0
aF0.0
aF0.0
aF0.0
aF0.0
aF0.0
aF0.0
aF0.0
aF0.0
asS's__Eubacterium_siraeum'
p81
(lp82
F0.0
aF0.0
aF0.0
aF0.0
aF411.119980431049
aF0.0
aF34.40395989578401
aF0.0
aF0.0
aF369.40941994020847
aF0.0
aF429.2315914451302
aF74.69996265001869
aF0.0
aF0.0
aF0.0
aF0.0
aF15418.784017282724
aF13528.395941481218
aF0.0
aF151.21475856043554
aF0.0
aF0.0
aF469.85751055929245
asS's__Bacteroides_coprocola'
p83
(lp84
F0.0
aF0.0
aF0.0
aF0.0
aF0.0
aF0.0
aF0.0
aF0.0
aF0.0
aF0.0
aF0.0
aF0.0
aF0.0
aF14.200215843280818
aF26843.202684320277
aF0.0
aF0.0
aF14038.611032000668
aF0.0
aF0.0
aF8.800858963834873
aF0.0
aF0.0
aF0.0
asS's__Streptococcus_parasanguinis'
p85
(lp86
F256.80695946860163
aF3562.800712560142
aF130.00003900001178
aF0.0
aF0.0
aF112.80003384001014
aF214.42468028070033
aF2505.985364629324
aF0.0
aF20.90053296359057
aF1638.1990170805896
aF0.0
aF25.699987150006432
aF136.20207027146813
aF4.000000400000041
aF85.49998290000343
aF146.55470887282223
aF179.1613986113041
aF0.0
aF79.29999207000078
aF2284.923008485629
aF50.80648290721896
aF86.92004376209152
aF0.0
asS's__Ruminococcus_lactaris'
p87
(lp88
F55.301498670613974
aF0.0
aF0.0
aF238.7999283600215
aF0.0
aF0.0
aF0.0
aF0.0
aF442.1000000000002
aF487.61243411706994
aF0.0
aF914.6673195147159
aF1294.3993528003239
aF0.0
aF0.0
aF41.99999160000168
aF998.5727672140009
aF0.0
aF4515.598645320407
aF0.0
aF0.0
aF0.0
aF3144.9252197556752
aF0.0
asS's__Butyrivibrio_crossotus'
p89
(lp90
F0.0
aF0.0
aF0.0
aF0.0
aF72070.60263128788
aF0.0
aF0.0
aF0.0
aF17022.200000000008
aF0.0
aF0.0
aF0.0
aF0.0
aF0.0
aF0.0
aF9483.69810326038
aF80076.99274139035
aF0.0
aF0.0
aF0.0
aF46.40452908203842
aF5.500701889561107
aF0.0
aF0.0
asS's__Parvimonas_micra'
p91
(lp92
F0.0
aF13.900002780000555
aF0.0
aF0.0
aF0.0
aF0.0
aF0.0
aF0.0
aF0.0
aF0.0
aF0.0
aF0.0
aF0.0
aF0.0
aF0.0
aF0.0
aF0.0
aF0.0
aF0.0
aF0.0
aF0.0
aF0.0
aF0.0
aF157.1192313939226
asS's__Prevotella_sp_CAG_279'
p93
(lp94
F0.0
aF0.0
aF53813.016143904875
aF0.0
aF5539.569223064241
aF0.0
aF0.0
aF0.0
aF0.0
aF0.0
aF0.0
aF0.0
aF0.0
aF0.0
aF0.0
aF0.0
aF156.35836857899054
aF0.0
aF0.0
aF0.0
aF21048.654348664433
aF0.0
aF0.0
aF0.0
asS's__Haemophilus_pittmaniae'
p95
(lp96
F0.0
aF0.0
aF0.0
aF0.0
aF0.0
aF0.0
aF0.0
aF0.0
aF0.0
aF0.0
aF0.0
aF0.0
aF0.0
aF0.0
aF0.0
aF0.0
aF0.0
aF0.0
aF0.0
aF0.0
aF0.0
aF0.0
aF219.05051304830891
aF0.0
asS's__Aggregatibacter_sp_oral_taxon_458'
p97
(lp98
F0.0
aF0.0
aF0.0
aF0.0
aF0.0
aF0.0
aF0.0
aF12774.813341553572
aF0.0
aF0.0
aF0.0
aF0.0
aF0.0
aF0.0
aF0.0
aF0.0
aF0.0
aF0.0
aF0.0
aF0.0
aF0.0
aF0.0
aF0.0
aF0.0
asS's__Intestinimonas_butyriciproducens'
p99
(lp100
F113.40307322328435
aF0.0
aF433.10012993003926
aF0.0
aF0.0
aF20.0000060000018
aF61.90712551014622
aF0.0
aF55.40000000000003
aF72.0018360468192
aF0.0
aF0.0
aF32.29998385000808
aF0.0
aF0.0
aF0.0
aF156.5584432668715
aF0.0
aF2595.4992213502337
aF0.0
aF0.0
aF0.0
aF0.0
aF0.0
asS's__Neisseria_sp_oral_taxon_014'
p101
(lp102
F0.0
aF0.0
aF0.0
aF0.0
aF0.0
aF0.0
aF0.0
aF44688.38840762442
aF0.0
aF0.0
aF0.0
aF0.0
aF0.0
aF0.0
aF0.0
aF0.0
aF0.0
aF0.0
aF0.0
aF0.0
aF0.0
aF0.0
aF0.0
aF0.0
asS's__Streptococcus_anginosus_group'
p103
(lp104
F0.0
aF0.0
aF0.0
aF0.0
aF0.0
aF0.0
aF0.0
aF279.1986408798229
aF0.0
aF0.0
aF0.0
aF0.0
aF0.0
aF0.0
aF0.0
aF0.0
aF0.0
aF0.0
aF0.0
aF0.0
aF59.405798005885394
aF0.0
aF0.0
aF0.0
asS's__Clostridium_sp_CAG_590'
p105
(lp106
F0.0
aF0.0
aF0.0
aF0.0
aF209.7101919153271
aF0.0
aF0.0
aF0.0
aF0.0
aF0.0
aF0.0
aF0.0
aF0.0
aF0.0
aF0.0
aF0.0
aF0.0
aF0.0
aF0.0
aF0.0
aF0.0
aF0.0
aF0.0
aF0.0
asS's__Adlercreutzia_equolifaciens'
p107
(lp108
F39.70107589915687
aF472.80009456001886
aF0.0
aF0.0
aF0.0
aF325.60009768002925
aF0.0
aF0.0
aF177.7000000000001
aF40.60103532640082
aF79.1999524800285
aF0.0
aF242.09987895006057
aF37.90057608875655
aF80.20000802000082
aF0.0
aF423.55811424404726
aF15.805416516240118
aF0.0
aF864.0999135900086
aF0.0
aF13.701748343088576
aF0.0
aF0.0
asS's__Coprococcus_eutactus'
p109
(lp110
F5.100138213745593
aF2628.900525780105
aF0.0
aF0.0
aF964.7468866986936
aF17354.00520620156
aF334.3384823593196
aF0.0
aF12175.700000000004
aF0.0
aF0.0
aF307122.9042457524
aF41197.87940106031
aF0.0
aF0.0
aF0.0
aF36290.4472239487
aF13669.184429503992
aF6377.698086690574
aF0.0
aF10464.02128847776
aF0.0
aF150.93480556616353
aF366339.4399474496
asS's__Alistipes_shahii'
p111
(lp112
F1918.0519792086366
aF0.0
aF13125.80393774119
aF69.19997924000623
aF257.11249566728947
aF0.0
aF2332.868513165866
aF0.0
aF6124.500000000003
aF2468.762953455313
aF218.1998690800785
aF155.71146036348267
aF13094.393452803277
aF5069.577057571275
aF2137.300213730022
aF52.79998944000212
aF3311.3361217742577
aF4104.506614416761
aF3173.999047800286
aF0.0
aF2714.6649512992476
aF2731.7485711176746
aF1129.6604997112333
aF206.2252419696171
asS's__Clostridium_lavalense'
p113
(lp114
F0.0
aF0.0
aF0.0
aF1099.6996700900988
aF0.0
aF0.0
aF62.10714853279613
aF0.0
aF0.0
aF0.0
aF0.0
aF0.0
aF0.0
aF246.10374077685984
aF0.0
aF0.0
aF18.40687128505071
aF0.0
aF0.0
aF0.0
aF0.0
aF0.0
aF0.0
aF0.0
asS's__Prevotella_maculosa'
p115
(lp116
F0.0
aF0.0
aF0.0
aF0.0
aF0.0
aF0.0
aF0.0
aF2710.357569329244
aF0.0
aF0.0
aF0.0
aF0.0
aF0.0
aF0.0
aF0.0
aF0.0
aF0.0
aF0.0
aF0.0
aF0.0
aF0.0
aF0.0
aF0.0
aF0.0
asS's__Eubacterium_rectale'
p117
(lp118
F45070.621413840316
aF369280.27385605476
aF46096.01382880418
aF71951.67841449648
aF1002.2487092872714
aF54443.1163329349
aF24.90286631991342
aF78.7278145368759
aF11782.200000000004
aF14443.76831609206
aF19228.588462846918
aF2892.112859506459
aF9753.59512320244
aF16326.448162012062
aF678.7000678700069
aF1291.1997417600517
aF17031.55788055681
aF211.9726430247646
aF21647.39350578195
aF9535.199046480095
aF5326.919907382962
aF3892.4966825766965
aF1014.0338362026282
aF30876.979342271494
asS's__Acidaminococcus_fermentans'
p119
(lp120
F0.0
aF0.0
aF0.0
aF0.0
aF0.0
aF0.0
aF0.0
aF0.0
aF0.0
aF0.0
aF0.0
aF0.0
aF0.0
aF0.0
aF0.0
aF0.0
aF0.0
aF0.0
aF0.0
aF0.0
aF1584.4546427731352
aF0.0
aF0.0
aF0.0
asS's__Butyricimonas_virosa'
p121
(lp122
F0.0
aF0.0
aF117.0000351000106
aF0.0
aF0.0
aF0.0
aF0.0
aF0.0
aF438.2000000000002
aF851.321708703572
aF0.0
aF0.0
aF2874.398562800719
aF683.1103832778258
aF152.20001522000157
aF1.7999996400000722
aF853.3185438124051
aF380.33033920724637
aF0.0
aF0.0
aF63.506198204944816
aF373.6476774436417
aF1688.1892964517615
aF0.0
asS's__Streptococcus_sp_SK643'
p123
(lp124
F0.0
aF0.0
aF87.40002622000792
aF0.0
aF0.0
aF0.0
aF0.0
aF171.16047099440237
aF0.0
aF0.0
aF0.0
aF0.0
aF0.0
aF0.0
aF0.0
aF0.0
aF0.0
aF0.0
aF0.0
aF0.0
aF0.0
aF0.0
aF0.0
aF0.0
asS's__Leuconostoc_mesenteroides'
p125
(lp126
F0.0
aF0.0
aF0.0
aF0.0
aF0.0
aF0.0
aF0.0
aF0.0
aF0.0
aF0.0
aF0.0
aF181.31334466216705
aF0.0
aF0.0
aF0.0
aF0.0
aF0.0
aF0.0
aF0.0
aF0.0
aF0.0
aF0.0
aF0.0
aF0.0
asS's__Granulicatella_elegans'
p127
(lp128
F0.0
aF0.0
aF0.0
aF0.0
aF0.0
aF0.0
aF0.0
aF997.1522939054369
aF0.0
aF0.0
aF0.0
aF0.0
aF0.0
aF0.0
aF0.0
aF0.0
aF0.0
aF0.0
aF0.0
aF0.0
aF0.0
aF0.0
aF0.0
aF34.90427228292743
asS's__Haemophilus_parahaemolyticus'
p129
(lp130
F0.0
aF0.0
aF0.0
aF0.0
aF0.0
aF0.0
aF0.0
aF7355.5987330323815
aF0.0
aF0.0
aF0.0
aF0.0
aF0.0
aF0.0
aF0.0
aF0.0
aF0.0
aF0.0
aF0.0
aF0.0
aF0.0
aF0.0
aF0.0
aF0.0
asS's__Streptococcus_macedonicus'
p131
(lp132
F363.90986195725907
aF0.0
aF0.0
aF0.0
aF0.0
aF152.90004587001374
aF0.0
aF0.0
aF0.0
aF0.0
aF0.0
aF0.0
aF0.0
aF0.0
aF0.0
aF0.0
aF0.0
aF0.0
aF0.0
aF0.0
aF0.0
aF0.0
aF0.0
aF0.0
asS's__Eikenella_corrodens'
p133
(lp134
F0.0
aF0.0
aF0.0
aF0.0
aF0.0
aF0.0
aF0.0
aF2955.0440170512247
aF0.0
aF0.0
aF0.0
aF0.0
aF0.0
aF0.0
aF0.0
aF0.0
aF0.0
aF0.0
aF0.0
aF0.0
aF0.0
aF0.0
aF0.0
aF0.0
asS's__Lactococcus_raffinolactis'
p135
(lp136
F0.0
aF0.0
aF0.0
aF0.0
aF0.0
aF0.0
aF21.40246342354005
aF0.0
aF0.0
aF0.0
aF84.1999494800303
aF223.71646553186304
aF0.0
aF0.0
aF0.0
aF79.29998414000318
aF0.0
aF0.0
aF0.0
aF0.0
aF0.0
aF0.0
aF0.0
aF0.0
asS's__Alistipes_onderdonkii'
p137
(lp138
F0.0
aF0.0
aF0.0
aF4270.698718790384
aF0.0
aF0.0
aF0.0
aF0.0
aF0.0
aF9.200234605982452
aF0.0
aF0.0
aF56.09997195001404
aF0.0
aF0.0
aF0.0
aF313.71711059738595
aF0.0
aF0.0
aF0.0
aF0.0
aF0.0
aF6142.9165565579415
aF0.0
asS's__Bacteroides_sp_CAG_462'
p139
(lp140
F0.0
aF0.0
aF0.0
aF0.0
aF0.0
aF34928.71047861314
aF0.0
aF0.0
aF0.0
aF0.0
aF0.0
aF0.0
aF0.0
aF0.0
aF0.0
aF0.0
aF42146.7333755691
aF0.0
aF0.0
aF0.0
aF0.0
aF0.0
aF0.0
aF0.0
asS's__Clostridium_sp_CAG_510'
p141
(lp142
F0.0
aF0.0
aF0.0
aF0.0
aF16427.298366700623
aF0.0
aF0.0
aF0.0
aF0.0
aF0.0
aF0.0
aF0.0
aF0.0
aF0.0
aF0.0
aF0.0
aF0.0
aF0.0
aF0.0
aF0.0
aF0.0
aF0.0
aF0.0
aF0.0
asS's__Eubacterium_hallii'
p143
(lp144
F0.0
aF0.0
aF242.40007272002197
aF201.29993961001813
aF169.00821379919066
aF0.0
aF256.52952654850577
aF0.0
aF191.30000000000007
aF0.0
aF0.0
aF393.62897109227225
aF789.6996051501975
aF541.7082339651563
aF305.70003057000315
aF0.0
aF256.095600487662
aF77.92670548196867
aF438.7998683600395
aF0.0
aF0.0
aF42.00535988392118
aF276.3637294760171
aF87.7107357940612
asS's__Actinomyces_sp_oral_taxon_181'
p145
(lp146
F0.0
aF0.0
aF0.0
aF0.0
aF0.0
aF0.0
aF0.0
aF6399.060788176464
aF0.0
aF0.0
aF0.0
aF0.0
aF0.0
aF0.0
aF0.0
aF0.0
aF0.0
aF0.0
aF0.0
aF0.0
aF0.0
aF0.0
aF0.0
aF0.0
asS's__Roseburia_inulinivorans'
p147
(lp148
F5884.959482401973
aF9179.101835820367
aF3311.9009935703
aF772.6997681900696
aF1907.8927235863666
aF6676.6020029806
aF407.6469201605105
aF0.0
aF2355.200000000001
aF7909.101682092893
aF16419.490148305907
aF1842.2355885393158
aF13759.293120353443
aF6255.195078965201
aF25204.70252047026
aF3477.4993045001397
aF19566.704250696785
aF14231.87726433849
aF8000.197599940721
aF6858.999314100068
aF6705.1544230716945
aF6995.692650382188
aF1771.8085790583305
aF831.7018003003568
asS's__Eisenbergiella_tayi'
p149
(lp150
F0.0
aF0.0
aF0.0
aF0.0
aF0.0
aF0.0
aF0.0
aF0.0
aF0.0
aF0.0
aF0.0
aF0.0
aF0.0
aF9076.73796641709
aF0.0
aF0.0
aF580.1165575109187
aF0.0
aF0.0
aF0.0
aF0.0
aF0.0
aF0.0
aF0.0
asS's__Eubacterium_sp_OM08_24'
p151
(lp152
F0.0
aF0.0
aF0.0
aF0.0
aF0.0
aF0.0
aF275.0316561436222
aF0.0
aF0.0
aF0.0
aF0.0
aF66.10486531808738
aF0.0
aF0.0
aF0.0
aF0.0
aF0.0
aF0.0
aF0.0
aF0.0
aF0.0
aF0.0
aF0.0
aF0.0
asS's__Barnesiella_intestinihominis'
p153
(lp154
F1106.0299734122796
aF0.0
aF0.0
aF0.0
aF806.1391783640686
aF1410.700423210127
aF0.0
aF0.0
aF2609.6000000000013
aF2875.4733245697767
aF2120.098727940763
aF319.923546373013
aF17192.5914037043
aF10239.555641245746
aF14347.601434760147
aF3999.5992000801602
aF9108.700277813707
aF8299.444219534034
aF4122.398763280371
aF2880.1997119800285
aF163.71597867951917
aF11780.303166684069
aF37977.45760172295
aF0.0
asS's__Megamonas_funiformis'
p155
(lp156
F0.0
aF0.0
aF0.0
aF0.0
aF7.500364517715562
aF0.0
aF0.0
aF0.0
aF0.0
aF0.0
aF0.0
aF0.0
aF0.0
aF0.0
aF0.0
aF0.0
aF0.0
aF0.0
aF0.0
aF0.0
aF0.0
aF0.0
aF1682.4879817285862
aF0.0
asS's__Fusobacterium_naviforme'
p157
(lp158
F0.0
aF0.0
aF0.0
aF0.0
aF0.0
aF0.0
aF0.0
aF0.0
aF0.0
aF0.0
aF0.0
aF0.0
aF906.2995468502266
aF0.0
aF0.0
aF0.0
aF0.0
aF0.0
aF0.0
aF0.0
aF0.0
aF0.0
aF0.0
aF0.0
asS's__Faecalibacterium_prausnitzii'
p159
(lp160
F166140.90241845552
aF22783.704556740908
aF214971.5644914695
aF43607.38691778392
aF15250.24116172046
aF85089.92552697765
aF193914.31953817885
aF281.9996304694449
aF223213.1000000001
aF45074.449398459656
aF156618.80602871635
aF116636.98448205783
aF89878.75506062248
aF110466.27908744212
aF242488.22424882246
aF7184.998563000288
aF84517.35032687701
aF98994.42538958103
aF76174.47714765687
aF19955.9980044002
aF66980.23727115768
aF41578.60543005287
aF64460.864675394136
aF87573.51899872544
asS's__Ruminococcaceae_bacterium_D16'
p161
(lp162
F0.0
aF0.0
aF0.0
aF0.0
aF0.0
aF0.0
aF0.0
aF0.0
aF0.0
aF0.0
aF0.0
aF0.0
aF0.0
aF0.0
aF0.0
aF0.0
aF287.2072144531553
aF0.0
aF58.799982360005295
aF0.0
aF0.0
aF0.0
aF0.0
aF0.0
asS's__Actinomyces_sp_HMSC035G02'
p163
(lp164
F0.0
aF0.0
aF0.0
aF0.0
aF0.0
aF0.0
aF0.0
aF214.87591566100306
aF0.0
aF0.0
aF0.0
aF0.0
aF0.0
aF0.0
aF0.0
aF0.0
aF0.0
aF0.0
aF0.0
aF0.0
aF5.800566135254803
aF0.0
aF0.0
aF56.60692868807142
asS's__Eubacterium_sp_CAG_274'
p165
(lp166
F0.0
aF0.0
aF0.0
aF0.0
aF0.0
aF0.0
aF0.0
aF0.0
aF0.0
aF0.0
aF0.0
aF0.0
aF0.0
aF1161.1176489882646
aF573.9000573900058
aF0.0
aF0.0
aF0.0
aF0.0
aF0.0
aF0.0
aF42.00535988392118
aF0.0
aF0.0
asS's__Mitsuokella_jalaludinii'
p167
(lp168
F0.0
aF0.0
aF0.0
aF0.0
aF0.0
aF0.0
aF0.0
aF0.0
aF0.0
aF0.0
aF0.0
aF0.0
aF0.0
aF0.0
aF0.0
aF0.0
aF0.0
aF0.0
aF609.4998171500549
aF0.0
aF331.7323770800031
aF0.0
aF0.0
aF0.0
asS's__Bacteroides_dorei'
p169
(lp170
F35.200953945851936
aF59.80001196000238
aF18788.605636581702
aF463491.46095256176
aF446.0216766534854
aF18358.20550746165
aF0.0
aF0.0
aF53826.60000000003
aF22513.574096139448
aF7190.495685702587
aF34.20251730527365
aF989.4995052502475
aF154173.64343938028
aF20116.902011690207
aF0.0
aF24019.86661620783
aF4235.551523507106
aF10126.696961990912
aF9.699999030000097
aF1511.94756608245
aF29738.89468296154
aF87894.26841829724
aF127.01554670291644
asS's__Alistipes_inops'
p171
(lp172
F0.0
aF0.0
aF0.0
aF0.0
aF1052.751163706556
aF0.0
aF0.0
aF0.0
aF265.10000000000014
aF0.0
aF0.0
aF0.0
aF0.0
aF0.0
aF0.0
aF0.0
aF0.0
aF0.0
aF0.0
aF0.0
aF0.0
aF0.0
aF0.0
aF0.0
asS's__Mogibacterium_diversum'
p173
(lp174
F0.0
aF0.0
aF0.0
aF0.0
aF0.0
aF0.0
aF0.0
aF195.96923593105447
aF0.0
aF0.0
aF0.0
aF0.0
aF0.0
aF0.0
aF0.0
aF0.0
aF0.0
aF0.0
aF0.0
aF0.0
aF0.0
aF0.0
aF0.0
aF0.0
asS's__Flavonifractor_plautii'
p175
(lp176
F346.50939040448
aF0.0
aF84.40002532000766
aF17142.394857281542
aF0.0
aF722.600216780065
aF8581.887775282936
aF0.0
aF93.20000000000005
aF659.3168125787207
aF0.0
aF34.6025467474406
aF2630.898684550658
aF5877.289334797889
aF209.00002090000214
aF0.0
aF1838.3862695944395
aF235.78080208087314
aF2693.4991919502427
aF175.49998245000174
aF220.42151313968247
aF1251.1596479710809
aF22919.685279425434
aF32.5039784869668
asS's__Prevotella_pallens'
p177
(lp178
F0.0
aF0.0
aF0.0
aF0.0
aF0.0
aF0.0
aF0.0
aF86599.59563713861
aF0.0
aF0.0
aF53.59996784001929
aF0.0
aF0.0
aF0.0
aF0.0
aF0.0
aF0.0
aF29.510113115764774
aF0.0
aF0.0
aF0.0
aF0.0
aF0.0
aF0.0
asS's__Dialister_succinatiphilus'
p179
(lp180
F0.0
aF0.0
aF0.0
aF0.0
aF93.40453946061778
aF0.0
aF0.0
aF0.0
aF0.0
aF755.2192580910813
aF0.0
aF865.2636834070985
aF5699.697150151426
aF0.0
aF3275.800327580034
aF0.0
aF0.0
aF0.0
aF5059.198482240456
aF0.0
aF0.0
aF1540.5965801236234
aF0.0
aF0.0
asS's__Bacteroides_ovatus'
p181
(lp182
F490.11328206994415
aF623.1001246200249
aF4087.9012263703708
aF32281.89031543291
aF498.8242428582029
aF4563.701369110411
aF0.0
aF0.0
aF1494.2000000000007
aF3251.282907714147
aF2390.09856594086
aF59.20435744070762
aF4690.797654601174
aF2254.234264360818
aF9468.500946850096
aF570.5998858800228
aF705.5633868122969
aF840.9882066584219
aF1720.999483700155
aF210.9999789000021
aF2701.9637116582585
aF19469.184267912584
aF2285.026927209414
aF62.20761421197954
asS's__Mitsuokella_multacida'
p183
(lp184
F0.0
aF0.0
aF0.0
aF0.0
aF0.0
aF0.0
aF0.0
aF0.0
aF0.0
aF0.0
aF14202.691478385112
aF0.0
aF0.0
aF6378.796957713757
aF0.0
aF0.0
aF0.0
aF0.0
aF18.499994450001665
aF0.0
aF31.703094221996075
aF0.0
aF0.0
aF0.0
asS's__Alistipes_indistinctus'
p185
(lp186
F5487.448709860037
aF0.0
aF9774.402932320887
aF1171.4996485501056
aF0.0
aF0.0
aF306.6352937223075
aF0.0
aF0.0
aF427.91091172824906
aF0.0
aF0.0
aF1706.499146750427
aF1420.9215980082897
aF6.700000670000069
aF19.19999616000077
aF421.5573673652374
aF999.9426803565583
aF0.0
aF480.3999519600048
aF1823.177942167156
aF83.41064319807207
aF0.0
aF0.0
asS's__Neisseria_mucosa'
p187
(lp188
F0.0
aF0.0
aF0.0
aF0.0
aF0.0
aF0.0
aF0.0
aF21679.459352989415
aF0.0
aF0.0
aF0.0
aF0.0
aF0.0
aF0.0
aF23.70000237000024
aF0.0
aF0.0
aF0.0
aF0.0
aF0.0
aF0.0
aF0.0
aF0.0
aF0.0
asS's__Clostridium_celatum'
p189
(lp190
F0.0
aF0.0
aF0.0
aF0.0
aF0.0
aF0.0
aF0.0
aF0.0
aF0.0
aF0.0
aF0.0
aF0.0
aF0.0
aF0.0
aF0.0
aF0.0
aF0.0
aF0.0
aF0.0
aF0.0
aF0.0
aF0.0
aF0.0
aF1046.9281440048262
asS's__Rothia_mucilaginosa'
p191
(lp192
F281.50762885674203
aF0.0
aF2116.400634920192
aF5.99999820000054
aF0.0
aF226.30006789002036
aF0.0
aF2045.3226124789892
aF241.8000000000001
aF0.0
aF42.39997456001526
aF421.03098788070787
aF62.69996865001569
aF284.40432294570877
aF189.00001890000195
aF45.69999086000183
aF0.0
aF315.4080903525639
aF123.59996292001112
aF0.0
aF595.9581655169546
aF181.123111309003
aF171.5395570218492
aF848.4038446305827
asS's__Eubacterium_sulci'
p193
(lp194
F0.0
aF0.0
aF0.0
aF0.0
aF0.0
aF0.0
aF0.0
aF719.6542538478845
aF0.0
aF0.0
aF0.0
aF0.0
aF0.0
aF0.0
aF0.0
aF0.0
aF0.0
aF0.0
aF0.0
aF0.0
aF0.0
aF0.0
aF0.0
aF0.0
asS's__Klebsiella_quasipneumoniae'
p195
(lp196
F0.0
aF0.0
aF0.0
aF0.0
aF0.0
aF0.0
aF36.10415558830822
aF0.0
aF0.0
aF0.0
aF0.0
aF0.0
aF0.0
aF0.0
aF0.0
aF0.0
aF0.0
aF0.0
aF140.0999579700126
aF0.0
aF0.0
aF0.0
aF0.0
aF0.0
asS's__Ruminococcaceae_bacterium_D5'
p197
(lp198
F0.0
aF0.0
aF0.0
aF0.0
aF0.0
aF0.0
aF0.0
aF0.0
aF219.0000000000001
aF0.0
aF0.0
aF0.0
aF0.0
aF0.0
aF0.0
aF0.0
aF335.52525157641344
aF0.0
aF0.0
aF0.0
aF0.0
aF0.0
aF0.0
aF0.0
asS's__Neisseria_elongata'
p199
(lp200
F0.0
aF0.0
aF0.0
aF0.0
aF0.0
aF0.0
aF0.0
aF5476.634895108443
aF0.0
aF0.0
aF0.0
aF0.0
aF0.0
aF0.0
aF0.0
aF0.0
aF0.0
aF0.0
aF0.0
aF0.0
aF0.0
aF0.0
aF0.0
aF0.0
asS's__Actinomyces_massiliensis'
p201
(lp202
F0.0
aF0.0
aF0.0
aF0.0
aF0.0
aF0.0
aF0.0
aF517.3827913401806
aF0.0
aF0.0
aF0.0
aF0.0
aF0.0
aF0.0
aF0.0
aF0.0
aF0.0
aF0.0
aF0.0
aF0.0
aF0.0
aF0.0
aF0.0
aF0.0
asS's__Bacteroides_intestinalis'
p203
(lp204
F0.0
aF0.0
aF0.0
aF0.0
aF0.0
aF0.0
aF0.0
aF0.0
aF0.0
aF0.0
aF0.0
aF0.0
aF9.099995450002275
aF40863.52112552111
aF0.0
aF0.0
aF29.61105380638592
aF0.0
aF0.0
aF0.0
aF0.0
aF999.7275652373241
aF0.0
aF0.0
asS's__Agathobaculum_butyriciproducens'
p205
(lp206
F1390.2376754410045
aF0.0
aF883.8002651400801
aF28.29999151000255
aF161.20783470076645
aF2153.7006461101937
aF12.901484960919003
aF0.0
aF2093.300000000001
aF97.30248121327092
aF644.2996134202318
aF468.8345062196576
aF2284.7988576005714
aF2544.438675467867
aF624.5000624500063
aF0.0
aF755.1819094067814
aF226.87775100526954
aF6114.098165770551
aF0.0
aF36.403552986771516
aF110.61411436099246
aF184.042440186707
aF0.0
asS's__Clostridium_sp_CAG_58'
p207
(lp208
F37.701021697688006
aF0.0
aF0.0
aF7493.697751890675
aF0.0
aF957.5002872500861
aF4275.5921206530875
aF0.0
aF11.700000000000005
aF0.0
aF19.69998818000709
aF48.20354778111667
aF399.49980025009995
aF2243.534101718346
aF0.0
aF7.0999985800002845
aF7361.548065892997
aF311.70682192787467
aF0.0
aF323.99996760000323
aF150.81471951662488
aF0.0
aF0.0
aF0.0
asS's__Neisseria_sicca'
p209
(lp210
F0.0
aF0.0
aF0.0
aF0.0
aF0.0
aF0.0
aF0.0
aF1810.1395222932265
aF0.0
aF0.0
aF0.0
aF0.0
aF0.0
aF0.0
aF0.0
aF0.0
aF0.0
aF0.0
aF0.0
aF0.0
aF0.0
aF0.0
aF0.0
aF0.0
asS's__Roseburia_sp_CAG_471'
p211
(lp212
F0.0
aF0.0
aF0.0
aF24.59999262000222
aF0.0
aF0.0
aF0.0
aF0.0
aF0.0
aF0.0
aF0.0
aF1.4001030475843017
aF3.2999983500008256
aF392.20596153061524
aF219.00002190000225
aF0.0
aF0.0
aF0.0
aF0.0
aF0.0
aF0.0
aF9.301186831439692
aF132.1304692862174
aF0.0
asS's__Prevotella_sp_F0091'
p213
(lp214
F0.0
aF0.0
aF0.0
aF0.0
aF0.0
aF0.0
aF0.0
aF531.6878453157501
aF0.0
aF0.0
aF0.0
aF0.0
aF0.0
aF0.0
aF0.0
aF0.0
aF0.0
aF0.0
aF0.0
aF0.0
aF0.0
aF0.0
aF0.0
aF0.0
asS's__Prevotella_sp_oral_taxon_473'
p215
(lp216
F0.0
aF0.0
aF0.0
aF0.0
aF0.0
aF0.0
aF0.0
aF9997.732198785832
aF0.0
aF0.0
aF0.0
aF0.0
aF0.0
aF0.0
aF0.0
aF0.0
aF0.0
aF0.0
aF0.0
aF0.0
aF0.0
aF0.0
aF0.0
aF0.0
asS's__Campylobacter_concisus'
p217
(lp218
F0.0
aF0.0
aF0.0
aF0.0
aF0.0
aF0.0
aF0.0
aF6180.583600185946
aF0.0
aF0.0
aF0.0
aF0.0
aF0.0
aF0.0
aF0.0
aF0.0
aF0.0
aF0.0
aF0.0
aF0.0
aF0.0
aF0.0
aF0.0
aF0.0
asS's__Eubacterium_dolichum_CAG_375'
p219
(lp220
F0.0
aF0.0
aF0.0
aF0.0
aF0.0
aF0.0
aF0.0
aF0.0
aF0.0
aF0.0
aF0.0
aF0.0
aF0.0
aF0.0
aF0.0
aF0.0
aF0.0
aF0.0
aF147.19995584001325
aF0.0
aF0.0
aF0.0
aF0.0
aF0.0
asS's__Clostridium_sp_CAG_167'
p221
(lp222
F0.0
aF0.0
aF0.0
aF0.0
aF92.70450543896435
aF2604.4007813202343
aF0.0
aF0.0
aF0.0
aF4226.107765748026
aF0.0
aF738.8543796823443
aF0.0
aF0.0
aF0.0
aF0.0
aF0.0
aF39.21343844535522
aF0.0
aF0.0
aF0.0
aF0.0
aF0.0
aF0.0
asS's__Olsenella_scatoligenes'
p223
(lp224
F96.00260167050527
aF0.0
aF0.0
aF0.0
aF0.0
aF0.0
aF0.0
aF0.0
aF120.80000000000005
aF0.0
aF0.0
aF5.100375387628528
aF0.0
aF0.0
aF0.0
aF0.0
aF0.0
aF101.43476169283214
aF0.0
aF0.0
aF0.0
aF0.0
aF0.0
aF74.6091321577761
asS's__Bacteroides_fragilis'
p225
(lp226
F40.101086739450636
aF0.0
aF0.0
aF1860.2994419101676
aF0.0
aF0.0
aF38095.984847855994
aF0.0
aF266.0000000000001
aF8861.125958711946
aF1122.3993265604038
aF0.0
aF15978.792010603998
aF112812.01474262409
aF0.0
aF0.0
aF287.30725179709583
aF0.0
aF0.0
aF1611.399838860016
aF87.00849202882203
aF5707.528280608604
aF251.5580092769392
aF0.0
asS's__Bacteroides_sp_CAG_144'
p227
(lp228
F0.0
aF0.0
aF0.0
aF0.0
aF0.0
aF3156.3009468902837
aF0.0
aF0.0
aF847.6000000000004
aF3266.8833055242903
aF15.49999070000558
aF0.0
aF1043.299478350261
aF0.0
aF0.0
aF0.0
aF0.0
aF0.0
aF0.0
aF0.0
aF208.8203808691729
aF5023.841042116974
aF12532.890084453473
aF0.0
asS's__Eubacterium_ventriosum'
p229
(lp230
F0.0
aF0.0
aF0.0
aF1932.099420370174
aF0.0
aF0.0
aF0.0
aF0.0
aF46.20000000000002
aF0.0
aF0.0
aF0.0
aF8793.8956030522
aF2544.438675467867
aF1014.0001014000103
aF0.0
aF816.3047265544227
aF6306.1611214163095
aF0.0
aF0.0
aF0.0
aF123.71578613431072
aF0.0
aF0.0
asS's__Prevotella_sp_oral_taxon_306'
p231
(lp232
F0.0
aF0.0
aF0.0
aF0.0
aF0.0
aF0.0
aF0.0
aF3705.209050357492
aF0.0
aF0.0
aF0.0
aF0.0
aF0.0
aF0.0
aF0.0
aF0.0
aF0.0
aF0.0
aF0.0
aF0.0
aF0.0
aF0.0
aF0.0
aF0.0
asS's__Actinomyces_naeslundii'
p233
(lp234
F0.0
aF0.0
aF0.0
aF0.0
aF0.0
aF0.0
aF0.0
aF3967.9018597270424
aF0.0
aF0.0
aF0.0
aF0.0
aF0.0
aF0.0
aF0.0
aF0.0
aF0.0
aF0.0
aF0.0
aF0.0
aF0.0
aF0.0
aF0.0
aF0.0
asS's__Clostridium_sp_CAG_299'
p235
(lp236
F0.0
aF0.0
aF0.0
aF0.0
aF0.0
aF0.0
aF0.0
aF0.0
aF0.0
aF0.0
aF0.0
aF0.0
aF0.0
aF79.00120081825243
aF0.0
aF0.0
aF0.0
aF0.0
aF0.0
aF0.0
aF0.0
aF0.0
aF86.51995150081608
aF0.0
asS's__Prevotella_nigrescens'
p237
(lp238
F0.0
aF0.0
aF0.0
aF0.0
aF0.0
aF0.0
aF0.0
aF51428.76978436483
aF0.0
aF0.0
aF0.0
aF0.0
aF0.0
aF0.0
aF0.0
aF0.0
aF0.0
aF0.0
aF0.0
aF0.0
aF0.0
aF0.0
aF0.0
aF0.0
asS's__Coprobacter_secundus'
p239
(lp240
F0.0
aF0.0
aF0.0
aF0.0
aF0.0
aF15.200004560001368
aF0.0
aF0.0
aF0.0
aF0.0
aF36.79997792001324
aF0.0
aF0.0
aF0.0
aF0.0
aF0.0
aF88.73312407521728
aF0.0
aF0.0
aF0.0
aF67.30656912114624
aF0.0
aF0.0
aF0.0
asS's__Flavonifractor_sp_An100'
p241
(lp242
F0.0
aF0.0
aF0.0
aF0.0
aF0.0
aF0.0
aF0.0
aF0.0
aF0.0
aF0.0
aF0.0
aF0.0
aF0.0
aF0.0
aF0.0
aF0.0
aF6.102277980370071
aF193.2662323378222
aF0.0
aF0.0
aF0.0
aF0.0
aF0.0
aF0.0
asS's__Neisseria_subflava'
p243
(lp244
F0.0
aF0.0
aF0.0
aF0.0
aF0.0
aF0.0
aF0.0
aF2186.5725160699276
aF0.0
aF30.700782869963184
aF0.0
aF0.0
aF0.0
aF86.30131177993906
aF0.0
aF0.0
aF0.0
aF9.103119639100319
aF0.0
aF52.499994750000525
aF0.0
aF0.0
aF21.404935978236576
aF9.101113976350705
asS's__Enterobacter_cloacae_complex'
p245
(lp246
F0.0
aF0.0
aF0.0
aF0.0
aF0.0
aF0.0
aF0.0
aF0.0
aF0.0
aF0.0
aF0.0
aF0.0
aF0.0
aF0.0
aF300.9000300900031
aF0.0
aF0.0
aF0.0
aF0.0
aF0.0
aF0.0
aF0.0
aF0.0
aF0.0
asS's__Phascolarctobacterium_faecium'
p247
(lp248
F0.0
aF0.0
aF0.0
aF0.0
aF0.0
aF0.0
aF5145.292223134884
aF0.0
aF0.0
aF0.0
aF0.0
aF0.0
aF0.0
aF231.50351885348655
aF0.0
aF0.0
aF5212.745918051208
aF0.0
aF0.0
aF0.0
aF0.0
aF0.0
aF2053.673577126885
aF0.0
asS's__Actinomyces_sp_oral_taxon_180'
p249
(lp250
F0.0
aF0.0
aF0.0
aF0.0
aF0.0
aF0.0
aF0.0
aF167.95934003483433
aF0.0
aF0.0
aF0.0
aF0.0
aF0.0
aF0.0
aF0.0
aF0.0
aF0.0
aF0.0
aF0.0
aF0.0
aF0.0
aF0.0
aF0.0
aF0.0
asS's__Bifidobacterium_angulatum'
p251
(lp252
F1189.2322281933841
aF0.0
aF2226.2006678602015
aF0.0
aF0.0
aF0.0
aF0.0
aF0.0
aF7104.900000000003
aF0.0
aF0.0
aF0.0
aF0.0
aF0.0
aF0.0
aF0.0
aF0.0
aF95.43270478793083
aF0.0
aF0.0
aF0.0
aF0.0
aF0.0
aF0.0
asS's__Roseburia_hominis'
p253
(lp254
F1617.8438435681608
aF0.0
aF3417.1010251303096
aF249.29992521002245
aF11083.238645398167
aF1310.4003931201178
aF229.3263954681184
aF0.0
aF283.0000000000001
aF0.0
aF256.6998459800924
aF2314.7703670990177
aF910.5995447002279
aF546.0082993261498
aF3534.4003534400363
aF284.9999430000114
aF5988.33544562185
aF4907.181691165563
aF3244.3990266802925
aF2077.2997922700206
aF1393.7360286363953
aF322.54115625153764
aF4833.314562338074
aF0.0
asS's__Saccharomyces_cerevisiae'
p255
(lp256
F0.0
aF0.0
aF0.0
aF0.0
aF0.0
aF0.0
aF0.0
aF0.0
aF0.0
aF0.0
aF0.0
aF0.0
aF0.0
aF215.90328172988228
aF3.300000330000034
aF0.0
aF0.0
aF471.8617070069913
aF0.0
aF0.0
aF0.0
aF0.0
aF0.0
aF0.0
asS's__Haemophilus_sputorum'
p257
(lp258
F0.0
aF0.0
aF0.0
aF0.0
aF0.0
aF0.0
aF0.0
aF4606.527486160861
aF0.0
aF0.0
aF0.0
aF0.0
aF0.0
aF0.0
aF0.0
aF0.0
aF0.0
aF0.0
aF0.0
aF0.0
aF0.0
aF0.0
aF0.0
aF0.0
asS's__Campylobacter_hominis'
p259
(lp260
F0.0
aF0.0
aF0.0
aF0.0
aF0.0
aF0.0
aF0.0
aF0.0
aF0.0
aF0.0
aF0.0
aF0.0
aF0.0
aF0.0
aF0.0
aF0.0
aF0.0
aF432.2481314346427
aF0.0
aF0.0
aF0.0
aF0.0
aF0.0
aF0.0
asS's__Streptococcus_infantis'
p261
(lp262
F0.0
aF65.2000130400026
aF25.200007560002284
aF0.0
aF0.0
aF0.0
aF8.500978462621049
aF0.0
aF0.0
aF0.0
aF547.1996716801968
aF284.7209554623219
aF0.0
aF0.0
aF119.70001197000121
aF0.0
aF0.0
aF0.0
aF0.0
aF0.0
aF42.704167926789665
aF0.0
aF63.614669542796555
aF0.0
asS's__Cutibacterium_acnes'
p263
(lp264
F92.00249326756754
aF90.80001816000362
aF854.1002562300774
aF0.0
aF28.401380307082928
aF112.90003387001016
aF0.0
aF0.0
aF0.0
aF0.0
aF0.0
aF0.0
aF45.39997730001136
aF19.900302484597766
aF252.7000252700026
aF156.4999687000063
aF0.0
aF122.94213226872851
aF394.9998815000356
aF0.0
aF207.2202246939302
aF34.70442828504917
aF151.43492089275784
aF0.0
asS's__Actinomyces_oris'
p265
(lp266
F0.0
aF0.0
aF0.0
aF0.0
aF0.0
aF0.0
aF0.0
aF687.0427321972854
aF0.0
aF0.0
aF0.0
aF0.0
aF0.0
aF0.0
aF0.0
aF0.0
aF0.0
aF0.0
aF0.0
aF0.0
aF0.0
aF0.0
aF0.0
aF0.0
asS's__Eubacterium_ramulus'
p267
(lp268
F105.00284557711514
aF0.0
aF733.2002199600665
aF0.0
aF45.302201687002
aF0.0
aF315.23628369625345
aF0.0
aF1050.4000000000005
aF28.200719118337517
aF492.7997043201774
aF2451.9804657622794
aF3189.498405250798
aF712.1108240845261
aF184.70001847000188
aF36.499992700001464
aF1346.9027988147975
aF312.20699333661645
aF6162.698151190555
aF0.0
aF0.0
aF290.9371235769684
aF321.574155000143
aF0.0
asS's__Parabacteroides_goldsteinii'
p269
(lp270
F0.0
aF0.0
aF0.0
aF3260.2990219102935
aF0.0
aF0.0
aF0.0
aF0.0
aF0.0
aF0.0
aF0.0
aF0.0
aF0.0
aF4439.767484465764
aF0.0
aF0.0
aF0.0
aF0.0
aF0.0
aF0.0
aF0.0
aF0.0
aF357.08234318833917
aF0.0
asS's__Eubacterium_sp_CAG_251'
p271
(lp272
F0.0
aF0.0
aF6515.20195456059
aF0.0
aF0.0
aF0.0
aF0.0
aF0.0
aF0.0
aF2531.8645625463446
aF0.0
aF0.0
aF3379.998310000846
aF0.0
aF11193.101119310113
aF0.0
aF2260.2437489914983
aF0.0
aF0.0
aF0.0
aF845.7825483767218
aF2437.0109625988275
aF0.0
aF0.0
asS's__Prevotella_copri'
p273
(lp274
F642229.4044168597
aF2725.7005451401087
aF45108.01353240409
aF4529.798641060407
aF749791.4398639774
aF2204.800661440198
aF1878.116171171302
aF3228.9407847792627
aF87437.40000000004
aF651356.9096011948
aF1639.09901654059
aF361755.5252066551
aF4457.597771201115
aF5288.180380341781
aF2347.100234710024
aF857727.3284545344
aF2898.782115363665
aF180847.27636160914
aF2488.099253570224
aF2726.9997273000267
aF685382.3933215884
aF766.9978689280751
aF3389.481614460294
aF360150.4824190481
asS's__Allisonella_histaminiformans'
p275
(lp276
F0.0
aF0.0
aF0.0
aF0.0
aF0.0
aF0.0
aF0.0
aF0.0
aF0.0
aF0.0
aF0.0
aF0.0
aF410.8997945501028
aF0.0
aF0.0
aF0.0
aF0.0
aF147.4505312970755
aF0.0
aF0.0
aF0.0
aF0.0
aF0.0
aF0.0
asS's__Ruminococcus_gnavus'
p277
(lp278
F0.0
aF0.0
aF0.0
aF3019.0990942702715
aF0.0
aF0.0
aF44.605134050929266
aF0.0
aF0.0
aF0.0
aF0.0
aF0.0
aF0.0
aF0.0
aF0.0
aF0.0
aF0.0
aF0.0
aF0.0
aF0.0
aF0.0
aF0.0
aF0.0
aF0.0
asS's__Parabacteroides_merdae'
p279
(lp280
F0.0
aF1992.7003985400795
aF18138.205441461643
aF0.0
aF0.0
aF9307.102792130838
aF0.0
aF0.0
aF0.0
aF3762.395941096498
aF0.0
aF96.50710292277508
aF404.6997976501013
aF26.300399766076442
aF69.1000069100007
aF1381.9997236000554
aF9572.073254946072
aF53693.40072842964
aF15697.995290601413
aF0.0
aF4524.641605020652
aF19102.137432736417
aF11066.35190074831
aF176.1215572786109
asS's__Paraprevotella_xylaniphila'
p281
(lp282
F0.0
aF0.0
aF0.0
aF0.0
aF94.10457348227125
aF0.0
aF0.0
aF0.0
aF0.0
aF2359.260161134109
aF0.0
aF144.31062126172483
aF0.0
aF0.0
aF0.0
aF0.0
aF0.0
aF0.0
aF6735.197979440607
aF0.0
aF0.0
aF0.0
aF0.0
aF141.81735844467363
asS's__Bacteroides_galacturonicus'
p283
(lp284
F101.9027615648384
aF0.0
aF0.0
aF0.0
aF0.0
aF605.8001817400544
aF0.0
aF0.0
aF0.0
aF0.0
aF0.0
aF57.2042102298729
aF120.6999396500302
aF0.0
aF0.0
aF0.0
aF0.0
aF0.0
aF0.0
aF0.0
aF0.0
aF274.0349668617715
aF0.0
aF0.0
asS's__Dorea_formicigenerans'
p285
(lp286
F139.80378868267331
aF0.0
aF216.3000648900196
aF522.299843310047
aF37.701832309050225
aF218.40006552001964
aF563.3648432934631
aF0.0
aF9.500000000000005
aF81.0020655526716
aF432.9997402001558
aF1248.3918816424884
aF999.19950040025
aF625.6095092645409
aF92.20000922000095
aF29.999994000001205
aF1375.1133298060163
aF378.92985926276936
aF642.4998072500579
aF468.29995317000464
aF148.91453405852414
aF423.45403273457686
aF209.1482295817415
aF455.55576002502704
asS's__Hungatella_hathewayi'
p287
(lp288
F0.0
aF0.0
aF0.0
aF0.0
aF0.0
aF0.0
aF0.0
aF0.0
aF0.0
aF0.0
aF0.0
aF0.0
aF162.1999189000406
aF687.6104516788655
aF0.0
aF0.0
aF0.0
aF0.0
aF0.0
aF0.0
aF0.0
aF0.0
aF0.0
aF0.0
asS's__Clostridium_bolteae_CAG_59'
p289
(lp290
F0.0
aF0.0
aF0.0
aF59.09998227000532
aF0.0
aF0.0
aF0.0
aF0.0
aF0.0
aF0.0
aF0.0
aF0.0
aF0.0
aF0.0
aF0.0
aF0.0
aF0.0
aF0.0
aF0.0
aF0.0
aF0.0
aF0.0
aF48.111094418372865
aF0.0
asS's__Porphyromonas_asaccharolytica'
p291
(lp292
F0.0
aF0.0
aF0.0
aF0.0
aF0.0
aF0.0
aF0.0
aF0.0
aF0.0
aF0.0
aF0.0
aF0.0
aF5188.997405501298
aF0.0
aF0.0
aF0.0
aF0.0
aF0.0
aF0.0
aF0.0
aF0.0
aF0.0
aF0.0
aF0.0
asS's__Prevotella_saccharolytica'
p293
(lp294
F0.0
aF0.0
aF0.0
aF0.0
aF0.0
aF0.0
aF0.0
aF798.5821390697336
aF0.0
aF0.0
aF0.0
aF0.0
aF0.0
aF0.0
aF0.0
aF0.0
aF0.0
aF0.0
aF0.0
aF0.0
aF0.0
aF0.0
aF0.0
aF0.0
asS's__Bifidobacterium_animalis'
p295
(lp296
F0.0
aF0.0
aF0.0
aF0.0
aF0.0
aF0.0
aF0.0
aF0.0
aF420.1000000000002
aF0.0
aF233.29986002008397
aF0.0
aF0.0
aF0.0
aF0.0
aF0.0
aF0.0
aF0.0
aF0.0
aF0.0
aF0.0
aF0.0
aF0.0
aF0.0
asS's__Kingella_denitrificans'
p297
(lp298
F0.0
aF0.0
aF0.0
aF0.0
aF0.0
aF0.0
aF0.0
aF23412.971802937984
aF0.0
aF0.0
aF0.0
aF0.0
aF0.0
aF0.0
aF0.0
aF0.0
aF0.0
aF0.0
aF0.0
aF0.0
aF0.0
aF0.0
aF0.0
aF0.0
asS's__Aggregatibacter_segnis'
p299
(lp300
F0.0
aF0.0
aF0.0
aF0.0
aF0.0
aF0.0
aF0.0
aF2520.590524632353
aF0.0
aF0.0
aF0.0
aF0.0
aF0.0
aF0.0
aF0.0
aF0.0
aF0.0
aF0.0
aF0.0
aF0.0
aF0.0
aF0.0
aF0.0
aF0.0
asS's__Actinomyces_odontolyticus'
p301
(lp302
F0.0
aF0.0
aF0.0
aF0.0
aF0.0
aF0.0
aF0.0
aF2937.0376554036543
aF0.0
aF0.0
aF0.0
aF64.2047254677944
aF0.0
aF0.0
aF0.0
aF0.0
aF0.0
aF13.704696599524658
aF0.0
aF0.0
aF36.90360179153487
aF0.0
aF27.906435223962642
aF128.41571808389347
asS's__Absiella_dolichum'
p303
(lp304
F0.0
aF0.0
aF0.0
aF0.0
aF0.0
aF0.0
aF0.0
aF0.0
aF0.0
aF0.0
aF0.0
aF0.0
aF0.0
aF0.0
aF0.0
aF0.0
aF0.0
aF0.0
aF213.49993595001925
aF0.0
aF0.0
aF0.0
aF0.0
aF0.0
asS's__Akkermansia_muciniphila'
p305
(lp306
F0.0
aF0.0
aF9003.902701170817
aF0.0
aF0.0
aF0.0
aF0.0
aF0.0
aF65904.10000000002
aF281.40717588298503
aF0.0
aF0.0
aF0.0
aF0.0
aF0.0
aF887.9998224000357
aF32627.77995025543
aF0.0
aF4740.598577820427
aF46570.49534295046
aF0.0
aF587.0749107586126
aF0.0
aF0.0
asS's__Lactobacillus_rogosae'
p307
(lp308
F22.200601636304345
aF259.6000519200104
aF0.0
aF0.0
aF0.0
aF14.80000444000133
aF0.0
aF0.0
aF0.0
aF0.0
aF0.0
aF677.249845588635
aF425.0997874501063
aF197.40300052560798
aF0.0
aF0.0
aF290.8085588350131
aF0.0
aF0.0
aF0.0
aF287.5280627389234
aF293.9375064258199
aF73.31690687872623
aF0.0
asS's__Lactobacillus_delbrueckii'
p309
(lp310
F188.4051057783666
aF0.0
aF0.0
aF0.0
aF46.60226487007269
aF0.0
aF4961.771099853593
aF0.0
aF0.0
aF168.70430195969996
aF0.0
aF1943.3430300470106
aF0.0
aF2703.2410892645566
aF0.0
aF0.0
aF5070.292740279946
aF0.0
aF0.0
aF1370.2998629700137
aF0.0
aF202.42582953584875
aF1527.8523227456249
aF0.0
asS's__Veillonella_atypica'
p311
(lp312
F0.0
aF33.00000660000132
aF0.0
aF30.199990940002717
aF0.0
aF0.0
aF0.0
aF9734.839318731309
aF0.0
aF0.0
aF0.0
aF0.0
aF0.0
aF14.900226483442548
aF0.0
aF0.0
aF0.0
aF53.618375017118375
aF0.0
aF133.89998661000132
aF1405.2371511459523
aF38.504913226927755
aF21.705005174193165
aF0.0
asS's__Haemophilus_parainfluenzae'
p313
(lp314
F0.0
aF0.0
aF0.0
aF0.0
aF0.0
aF0.0
aF0.0
aF20672.103454150354
aF0.0
aF171.30436826139064
aF0.0
aF8.700640367131017
aF0.0
aF184.002796842512
aF100.70001007000103
aF0.0
aF0.0
aF0.0
aF0.0
aF0.0
aF77.80759402117648
aF86.41102604692358
aF582.8344016130119
aF0.0
asS's__Streptococcus_australis'
p315
(lp316
F0.0
aF0.0
aF0.0
aF0.0
aF0.0
aF0.0
aF0.0
aF94.13325727979696
aF0.0
aF0.0
aF0.0
aF44.30326071998898
aF0.0
aF0.0
aF0.0
aF0.0
aF0.0
aF0.0
aF0.0
aF0.0
aF0.0
aF0.0
aF34.70800366564529
aF0.0
asS's__Bacteroides_pectinophilus'
p317
(lp318
F0.0
aF0.0
aF0.0
aF0.0
aF0.0
aF0.0
aF0.0
aF0.0
aF0.0
aF0.0
aF0.0
aF2093.0540487779895
aF0.0
aF0.0
aF0.0
aF0.0
aF0.0
aF0.0
aF0.0
aF0.0
aF0.0
aF0.0
aF0.0
aF0.0
asS's__Prevotella_scopos'
p319
(lp320
F0.0
aF0.0
aF0.0
aF0.0
aF0.0
aF0.0
aF0.0
aF2024.8153672692565
aF0.0
aF0.0
aF0.0
aF0.0
aF0.0
aF0.0
aF0.0
aF0.0
aF0.0
aF0.0
aF0.0
aF0.0
aF0.0
aF0.0
aF0.0
aF0.0
asS's__Prevotella_buccae'
p321
(lp322
F0.0
aF0.0
aF0.0
aF0.0
aF0.0
aF0.0
aF0.0
aF999.8532481525724
aF0.0
aF0.0
aF0.0
aF0.0
aF0.0
aF0.0
aF0.0
aF0.0
aF0.0
aF0.0
aF0.0
aF0.0
aF0.0
aF0.0
aF0.0
aF0.0
asS's__Anaerotruncus_sp_CAG_528'
p323
(lp324
F0.0
aF0.0
aF0.0
aF0.0
aF0.0
aF0.0
aF0.0
aF0.0
aF0.0
aF0.0
aF0.0
aF0.0
aF0.0
aF0.0
aF0.0
aF0.0
aF0.0
aF0.0
aF0.0
aF0.0
aF0.0
aF665.0848648287521
aF0.0
aF0.0
asS's__Bacteroides_plebeius'
p325
(lp326
F0.0
aF394978.67899573577
aF0.0
aF0.0
aF3634.8766550054333
aF147955.7443867233
aF0.0
aF0.0
aF0.0
aF0.0
aF0.0
aF431.23173865596493
aF0.0
aF87.60133154023941
aF0.0
aF0.0
aF8.803286266763383
aF103.63551589129595
aF13.899995830001252
aF0.0
aF0.0
aF6.300803982588177
aF0.0
aF0.0
asS's__Prevotella_sp_CAG_520'
p327
(lp328
F0.0
aF22.800004560000907
aF14.000004200001268
aF0.0
aF30.30147265157087
aF0.0
aF3.100356851073559
aF0.0
aF10.500000000000004
aF20.30051766320041
aF23.599985840008493
aF0.0
aF9.499995250002376
aF24.90037848575298
aF45.000004500000465
aF0.0
aF141.95299105155954
aF72.92499139455091
aF178.39994648001607
aF579338.4420661557
aF272.3265790741177
aF0.0
aF13.803183014003027
aF219.62688233039722
asS's__Streptococcus_lutetiensis'
p329
(lp330
F0.0
aF0.0
aF0.0
aF0.0
aF0.0
aF0.0
aF0.0
aF0.0
aF0.0
aF0.0
aF0.0
aF0.0
aF0.0
aF0.0
aF0.0
aF0.0
aF0.0
aF0.0
aF0.0
aF0.0
aF0.0
aF0.0
aF0.0
aF1342.7643543569732
asS's__Holdemanella_biformis'
p331
(lp332
F0.0
aF0.0
aF0.0
aF0.0
aF0.0
aF0.0
aF0.0
aF0.0
aF0.0
aF0.0
aF0.0
aF0.0
aF550.3997248001377
aF0.0
aF1723.9001723900176
aF0.0
aF0.0
aF0.0
aF0.0
aF0.0
aF66.00644222876156
aF0.0
aF0.0
aF0.0
asS's__Eubacterium_sp_CAG_180'
p333
(lp334
F0.0
aF0.0
aF962.4002887200871
aF0.0
aF1825.188704171023
aF0.0
aF0.0
aF0.0
aF27354.600000000013
aF0.0
aF0.0
aF42234.50845982263
aF0.0
aF0.0
aF0.0
aF0.0
aF11361.341188665729
aF42875.89356872601
aF12931.696120491166
aF0.0
aF2837.7769670319835
aF0.0
aF0.0
aF15401.285117298357
asS's__Roseburia_sp_CAG_182'
p335
(lp336
F0.0
aF0.0
aF0.0
aF0.0
aF95.40463666534194
aF0.0
aF0.0
aF0.0
aF146.20000000000007
aF2087.353227507301
aF0.0
aF979.6721038668442
aF0.0
aF0.0
aF210.50002105000215
aF290.6999418600117
aF0.0
aF221.57593407260669
aF0.0
aF0.0
aF0.0
aF0.0
aF0.0
aF0.0
asS's__Capnocytophaga_sputigena'
p337
(lp338
F0.0
aF0.0
aF0.0
aF0.0
aF0.0
aF0.0
aF0.0
aF1743.9161255671631
aF0.0
aF0.0
aF0.0
aF0.0
aF0.0
aF0.0
aF0.0
aF0.0
aF0.0
aF0.0
aF0.0
aF0.0
aF0.0
aF0.0
aF0.0
aF0.0
asS's__Bifidobacterium_dentium'
p339
(lp340
F0.0
aF0.0
aF0.0
aF0.0
aF0.0
aF0.0
aF0.0
aF0.0
aF0.0
aF0.0
aF0.0
aF0.0
aF0.0
aF0.0
aF0.0
aF0.0
aF0.0
aF473.8623926419585
aF0.0
aF0.0
aF0.0
aF0.0
aF0.0
aF0.0
asS's__Veillonella_parvula'
p341
(lp342
F0.0
aF0.0
aF0.0
aF327.79990166002955
aF0.0
aF0.0
aF0.0
aF21558.016447210804
aF0.0
aF78.50200180104592
aF10.399993760003744
aF0.0
aF0.0
aF0.0
aF0.0
aF0.0
aF9.203435642525355
aF140.74823441993573
aF0.0
aF0.0
aF3212.413531560681
aF0.0
aF579.7336865881271
aF0.0
asS's__Sutterella_parvirubra'
p343
(lp344
F0.0
aF0.0
aF0.0
aF0.0
aF0.0
aF0.0
aF0.0
aF0.0
aF0.0
aF0.0
aF0.0
aF0.0
aF0.0
aF41.400629289565195
aF78.30000783000081
aF0.0
aF0.0
aF0.0
aF0.0
aF0.0
aF64.60630557542417
aF0.0
aF0.0
aF0.0
asS's__Stomatobaculum_longum'
p345
(lp346
F0.0
aF0.0
aF0.0
aF0.0
aF0.0
aF0.0
aF0.0
aF1669.2897600722338
aF0.0
aF0.0
aF0.0
aF0.0
aF0.0
aF0.0
aF0.0
aF0.0
aF0.0
aF0.0
aF0.0
aF0.0
aF4.300419720964768
aF0.0
aF0.0
aF0.0
asS's__Clostridium_leptum'
p347
(lp348
F61.30166127502055
aF0.0
aF0.0
aF0.0
aF0.0
aF20.70000621000186
aF0.0
aF0.0
aF151.90000000000006
aF0.0
aF0.0
aF0.0
aF0.0
aF0.0
aF0.0
aF0.0
aF0.0
aF0.0
aF0.0
aF0.0
aF0.0
aF0.0
aF0.0
aF0.0
asS's__Granulicatella_adiacens'
p349
(lp350
F0.0
aF0.0
aF0.0
aF0.0
aF0.0
aF0.0
aF0.0
aF257.0908301903063
aF0.0
aF0.0
aF0.0
aF0.0
aF0.0
aF0.0
aF0.0
aF0.0
aF0.0
aF0.0
aF0.0
aF0.0
aF0.0
aF0.0
aF0.0
aF0.0
asS's__Streptococcus_salivarius'
p351
(lp352
F221.80601094289656
aF285.8000571600114
aF209.20006276001894
aF0.0
aF0.0
aF0.0
aF0.0
aF0.0
aF0.0
aF2.7000688517557196
aF176.1998942800634
aF310.7228692031733
aF0.0
aF173.90264332017847
aF91.00000910000094
aF0.0
aF739.3760090641836
aF162.35563927758042
aF0.0
aF0.0
aF3227.71502498644
aF48.10613834325259
aF41.20950291137135
aF0.0
asS's__Oribacterium_sinus'
p353
(lp354
F0.0
aF0.0
aF0.0
aF0.0
aF0.0
aF0.0
aF0.0
aF627.421668075331
aF0.0
aF0.0
aF0.0
aF0.0
aF0.0
aF0.0
aF0.0
aF0.0
aF0.0
aF0.0
aF0.0
aF0.0
aF0.0
aF0.0
aF0.0
aF0.0
asS's__Atopobium_rimae'
p355
(lp356
F0.0
aF0.0
aF0.0
aF0.0
aF0.0
aF0.0
aF0.0
aF105.83739235071752
aF0.0
aF0.0
aF0.0
aF0.0
aF0.0
aF0.0
aF0.0
aF0.0
aF0.0
aF0.0
aF0.0
aF0.0
aF0.0
aF0.0
aF0.0
aF0.0
asS's__Veillonella_rodentium'
p357
(lp358
F0.0
aF0.0
aF0.0
aF0.0
aF0.0
aF0.0
aF0.0
aF258.79143101257677
aF0.0
aF0.0
aF0.0
aF0.0
aF0.0
aF0.0
aF0.0
aF0.0
aF0.0
aF0.0
aF0.0
aF0.0
aF0.0
aF0.0
aF0.0
aF0.0
asS's__Escherichia_coli'
p359
(lp360
F31.200845542914212
aF0.0
aF363.800109140033
aF8562.497431250771
aF0.0
aF190.2000570600171
aF1731.0992495236203
aF0.0
aF0.0
aF0.0
aF820.0995079402952
aF738.7543723218026
aF5234.997382501309
aF1605.7244070109866
aF4492.500449250046
aF0.0
aF676.0523703498515
aF9543.070410229586
aF512.6998461900462
aF0.0
aF699.468268102967
aF1889.3410799217977
aF332.0765768586235
aF2309.682705163112
asS's__Bifidobacterium_bifidum'
p361
(lp362
F1259.3341279548677
aF0.0
aF3268.5009805502964
aF0.0
aF0.0
aF0.0
aF0.0
aF0.0
aF0.0
aF0.0
aF0.0
aF0.0
aF0.0
aF0.0
aF0.0
aF0.0
aF0.0
aF2368.0115175470632
aF0.0
aF0.0
aF0.0
aF0.0
aF0.0
aF0.0
asS's__Bilophila_wadsworthia'
p363
(lp364
F769.7208594352907
aF0.0
aF11130.303339091008
aF658.9998023000593
aF0.0
aF1152.7003458101037
aF0.0
aF0.0
aF180.60000000000008
aF289.50738243825214
aF0.0
aF147.21083471743515
aF1918.29904085048
aF1587.124124286689
aF0.0
aF31.799993640001276
aF114.24264678004297
aF752.3578330293792
aF0.0
aF0.0
aF0.0
aF0.0
aF935.7157760579588
aF0.0
asS's__Fusobacterium_periodonticum'
p365
(lp366
F0.0
aF0.0
aF0.0
aF0.0
aF0.0
aF0.0
aF0.0
aF525.8857954515331
aF0.0
aF0.0
aF0.0
aF0.0
aF0.0
aF0.0
aF0.0
aF0.0
aF0.0
aF0.0
aF0.0
aF0.0
aF0.0
aF0.0
aF0.0
aF0.0
asS's__Corynebacterium_matruchotii'
p367
(lp368
F0.0
aF0.0
aF0.0
aF0.0
aF0.0
aF0.0
aF0.0
aF12679.279589478965
aF0.0
aF0.0
aF0.0
aF0.0
aF0.0
aF0.0
aF0.0
aF0.0
aF0.0
aF0.0
aF0.0
aF0.0
aF0.0
aF0.0
aF0.0
aF0.0
asS's__Actinomyces_sp_ICM47'
p369
(lp370
F17.40047155277908
aF11.30000226000045
aF0.0
aF0.0
aF0.0
aF0.0
aF0.0
aF348.62316856545425
aF0.0
aF0.0
aF263.79984172009495
aF25.101847495975694
aF0.0
aF0.0
aF94.00000940000095
aF14.399997120000577
aF0.0
aF24.20829618310195
aF0.0
aF0.0
aF44.60435338489038
aF0.0
aF0.0
aF179.32194900655838
asS's__Oribacterium_sp_oral_taxon_078'
p371
(lp372
F0.0
aF0.0
aF0.0
aF0.0
aF0.0
aF0.0
aF0.0
aF772.0727733108108
aF0.0
aF0.0
aF0.0
aF0.0
aF0.0
aF0.0
aF0.0
aF0.0
aF0.0
aF0.0
aF0.0
aF0.0
aF0.0
aF0.0
aF0.0
aF0.0
asS's__Firmicutes_bacterium_CAG_238'
p373
(lp374
F0.0
aF0.0
aF0.0
aF0.0
aF0.0
aF0.0
aF0.0
aF0.0
aF132.60000000000005
aF0.0
aF0.0
aF86.5063668686015
aF0.0
aF0.0
aF0.0
aF0.0
aF0.0
aF0.0
aF0.0
aF0.0
aF0.0
aF0.0
aF0.0
aF0.0
asS's__Streptococcus_cristatus'
p375
(lp376
F0.0
aF148.0000296000059
aF0.0
aF0.0
aF0.0
aF0.0
aF0.0
aF0.0
aF0.0
aF0.0
aF0.0
aF11.600853822841357
aF0.0
aF0.0
aF0.0
aF0.0
aF0.0
aF0.0
aF0.0
aF0.0
aF0.0
aF0.0
aF0.0
aF0.0
asS's__Bacteroides_clarus'
p377
(lp378
F0.0
aF0.0
aF0.0
aF0.0
aF0.0
aF0.0
aF0.0
aF0.0
aF0.0
aF0.0
aF0.0
aF0.0
aF0.0
aF0.0
aF0.0
aF0.0
aF11556.013859973928
aF148.45087411455907
aF0.0
aF3630.6996369300364
aF406.53967827259953
aF0.0
aF15066.274282849621
aF0.0
asS's__Odoribacter_splanchnicus'
p379
(lp380
F642.2174040916509
aF17.400003480000695
aF8572.002571600777
aF12577.496226751133
aF1134.4551345195378
aF976.7002930100879
aF0.0
aF0.0
aF2321.900000000001
aF1534.639133297899
aF343.09979414012344
aF1488.6095616637378
aF5575.497212251395
aF0.0
aF1994.4001994400203
aF1032.4997935000415
aF4825.50135965756
aF6853.348642579813
aF5312.698406190479
aF2882.5997117400284
aF2557.74963636451
aF6142.383768168817
aF18981.47712862586
aF392.44803563956225
asS's__Gemmiger_formicilis'
p381
(lp382
F489.11325496920966
aF443.8000887600177
aF2894.7008684102625
aF554.5998336200499
aF171.80834988580446
aF1056.400316920095
aF482.95558818820047
aF0.0
aF4003.400000000002
aF330.6084305149781
aF3387.197967681219
aF965.6710733910013
aF1518.2992408503799
aF4460.067793030455
aF1114.6001114600115
aF95.19998096000381
aF834.7115978394734
aF1414.0846067947487
aF2641.8992074302378
aF197.99998020000194
aF417.7407714992985
aF1109.3415519820328
aF2118.8886157147836
aF460.55637209994507
asS's__Fusicatenibacter_saccharivorans'
p383
(lp384
F467.31266417319904
aF2062.8004125600823
aF6834.202050260619
aF2114.1993657401904
aF1174.8570980549655
aF2766.5008299502488
aF16665.818235678926
aF0.0
aF1471.9000000000005
aF986.7251614916181
aF3207.6980753811545
aF6379.069499515162
aF6875.29656235172
aF8545.029884454243
aF6424.200642420065
aF180.89996382000726
aF22333.236997371117
aF2093.017277020835
aF23573.692927892123
aF916.999908300009
aF401.4391804640134
aF4519.876736271548
aF7970.2379368682405
aF686.784062369234
asS's__Eubacterium_brachy'
p385
(lp386
F0.0
aF0.0
aF0.0
aF0.0
aF0.0
aF0.0
aF0.0
aF0.0
aF0.0
aF0.0
aF0.0
aF23.901759169474865
aF0.0
aF0.0
aF0.0
aF0.0
aF0.0
aF0.0
aF0.0
aF0.0
aF0.0
aF0.0
aF0.0
aF352.9432002477103
asS's__Dielma_fastidiosa'
p387
(lp388
F0.0
aF0.0
aF0.0
aF0.0
aF0.0
aF0.0
aF35.80412105433336
aF0.0
aF0.0
aF0.0
aF0.0
aF0.0
aF0.0
aF0.0
aF0.0
aF0.0
aF155.4580324835261
aF0.0
aF0.0
aF0.0
aF0.0
aF0.0
aF0.0
aF0.0
asS's__Prevotella_corporis'
p389
(lp390
F0.0
aF0.0
aF0.0
aF0.0
aF0.0
aF0.0
aF0.0
aF0.0
aF0.0
aF0.0
aF0.0
aF0.0
aF9281.495359252322
aF0.0
aF381.8000381800039
aF0.0
aF0.0
aF2335.3003074153517
aF0.0
aF0.0
aF0.0
aF0.0
aF0.0
aF0.0
asS's__Neisseria_flavescens'
p391
(lp392
F233.20631989126906
aF56.000011200002234
aF0.0
aF223.99993280002016
aF0.0
aF46.90001407000422
aF13.801588562843584
aF43271.6878873306
aF258.2000000000001
aF83.00211655397212
aF99.59994024003583
aF142.3104740508901
aF159.29992035003986
aF90.50137562090944
aF406.8000406800042
aF139.69997206000562
aF0.0
aF0.0
aF0.0
aF140.3999859600014
aF188.61840915673375
aF90.41153651205893
aF69.01591507001513
aF29.90366020800946
asS's__Harryflintia_acetispora'
p393
(lp394
F0.0
aF0.0
aF0.0
aF0.0
aF0.0
aF0.0
aF0.0
aF0.0
aF0.0
aF0.0
aF0.0
aF0.0
aF0.0
aF0.0
aF0.0
aF0.0
aF0.0
aF0.0
aF144.199956740013
aF0.0
aF0.0
aF0.0
aF0.0
aF0.0
asS's__Actinomyces_sp_S6_Spd3'
p395
(lp396
F0.0
aF0.0
aF0.0
aF0.0
aF0.0
aF0.0
aF0.0
aF168.65958743223985
aF0.0
aF0.0
aF0.0
aF0.0
aF0.0
aF0.0
aF0.0
aF0.0
aF0.0
aF0.0
aF0.0
aF0.0
aF0.0
aF0.0
aF0.0
aF0.0
asS's__Clostridium_asparagiforme'
p397
(lp398
F0.0
aF0.0
aF0.0
aF0.0
aF0.0
aF0.0
aF0.0
aF0.0
aF0.0
aF53.50136428478926
aF0.0
aF0.0
aF0.0
aF0.0
aF0.0
aF0.0
aF130.34865915446235
aF0.0
aF132.0999603700119
aF0.0
aF0.0
aF36.10460694784654
aF0.0
aF0.0
asS's__Ruminococcus_bromii'
p399
(lp400
F246.70668575118384
aF1996.7003993400797
aF819.7002459100743
aF0.0
aF128.1062259625818
aF4438.201331460399
aF0.0
aF0.0
aF20097.90000000001
aF1593.1406250859397
aF909.6994541803274
aF0.0
aF0.0
aF2680.440742699289
aF27082.002708200274
aF0.0
aF839.2132783167955
aF4224.3476839512905
aF63.39998098000571
aF0.0
aF0.0
aF21.50274375010251
aF0.0
aF567.2694337786945
asS's__Desulfovibrio_piger'
p401
(lp402
F0.0
aF0.0
aF0.0
aF0.0
aF4884.537388517083
aF0.0
aF2056.0366498183944
aF0.0
aF0.0
aF0.0
aF0.0
aF0.0
aF0.0
aF0.0
aF0.0
aF0.0
aF12002.480525980347
aF0.0
aF0.0
aF0.0
aF0.0
aF0.0
aF0.0
aF5454.967688045016
asS's__Ruminococcus_bicirculans'
p403
(lp404
F0.0
aF1157.4002314800462
aF7020.702106210637
aF566.2998301100511
aF99.60484079526266
aF288.4000865200259
aF679.3781964304092
aF0.0
aF0.0
aF0.0
aF777.7995333202799
aF4086.2007443747843
aF1016.0994919502542
aF2110.732083127664
aF12745.40127454013
aF0.0
aF20.50765550780106
aF3360.251558208998
aF7733.097680070696
aF936.1999063800092
aF2030.798205904897
aF873.2114217774188
aF626.3444350267171
aF0.0
asS's__Gordonibacter_pamelaeae'
p405
(lp406
F723.0195938309928
aF25.100005020001003
aF0.0
aF67.89997963000611
aF0.0
aF0.0
aF181.3208700321407
aF0.0
aF0.0
aF84.80216245514261
aF0.0
aF0.0
aF0.0
aF0.0
aF0.0
aF0.0
aF437.1631930199543
aF0.0
aF0.0
aF275.69997243000273
aF0.0
aF47.20602348859714
aF73.61697607468281
aF0.0
asS's__Kingella_oralis'
p407
(lp408
F0.0
aF0.0
aF0.0
aF0.0
aF0.0
aF0.0
aF0.0
aF2714.058877001245
aF0.0
aF0.0
aF0.0
aF0.0
aF0.0
aF0.0
aF0.0
aF0.0
aF0.0
aF0.0
aF0.0
aF0.0
aF0.0
aF0.0
aF0.0
aF0.0
asS's__Bacteroides_nordii'
p409
(lp410
F0.0
aF0.0
aF0.0
aF0.0
aF0.0
aF0.0
aF0.0
aF0.0
aF0.0
aF11.700298357608117
aF0.0
aF0.0
aF466.99976650011683
aF150.70229067481827
aF0.0
aF0.0
aF0.0
aF0.0
aF0.0
aF0.0
aF0.0
aF0.0
aF0.0
aF0.0
asS's__Bacteroides_salyersiae'
p411
(lp412
F0.0
aF0.0
aF0.0
aF0.0
aF0.0
aF0.0
aF0.0
aF0.0
aF0.0
aF0.0
aF0.0
aF0.0
aF3788.0981059509477
aF0.0
aF0.0
aF90.59998188000364
aF0.0
aF0.0
aF451.5998645200407
aF0.0
aF0.0
aF0.0
aF1958.1515497473715
aF0.0
asS's__Megasphaera_micronuciformis'
p413
(lp414
F0.0
aF0.0
aF0.0
aF0.0
aF0.0
aF0.0
aF0.0
aF2062.0285146742344
aF0.0
aF0.0
aF0.0
aF0.0
aF0.0
aF0.0
aF0.0
aF0.0
aF0.0
aF0.0
aF0.0
aF0.0
aF0.0
aF0.0
aF0.0
aF0.0
asS's__Prevotella_disiens'
p415
(lp416
F0.0
aF0.0
aF0.0
aF0.0
aF0.0
aF0.0
aF0.0
aF0.0
aF0.0
aF0.0
aF0.0
aF0.0
aF0.0
aF267.1040599817117
aF0.0
aF0.0
aF0.0
aF0.0
aF0.0
aF0.0
aF0.0
aF0.0
aF197.04543867815914
aF0.0
asS's__Lautropia_mirabilis'
p417
(lp418
F0.0
aF0.0
aF0.0
aF0.0
aF0.0
aF0.0
aF0.0
aF5734.626043381128
aF0.0
aF0.0
aF0.0
aF0.0
aF0.0
aF0.0
aF0.0
aF0.0
aF0.0
aF0.0
aF0.0
aF0.0
aF0.0
aF0.0
aF0.0
aF0.0
asS's__Bifidobacterium_catenulatum'
p419
(lp420
F0.0
aF0.0
aF0.0
aF0.0
aF0.0
aF0.0
aF0.0
aF0.0
aF0.0
aF0.0
aF0.0
aF0.0
aF167.29991635004185
aF0.0
aF0.0
aF0.0
aF0.0
aF0.0
aF0.0
aF0.0
aF0.0
aF0.0
aF0.0
aF0.0
asS's__Blastocystis_sp_subtype_1'
p421
(lp422
F0.0
aF0.0
aF0.0
aF0.0
aF0.0
aF0.0
aF0.0
aF0.0
aF0.0
aF3136.079970039236
aF0.0
aF0.0
aF0.0
aF0.0
aF0.0
aF0.0
aF0.0
aF0.0
aF0.0
aF0.0
aF0.0
aF0.0
aF0.0
aF0.0
asS's__Parabacteroides_johnsonii'
p423
(lp424
F0.0
aF0.0
aF0.0
aF0.0
aF0.0
aF0.0
aF0.0
aF0.0
aF0.0
aF0.0
aF0.0
aF0.0
aF0.0
aF0.0
aF0.0
aF0.0
aF0.0
aF0.0
aF0.0
aF796.6999203300079
aF0.0
aF0.0
aF0.0
aF0.0
asS's__Bifidobacterium_pseudocatenulatum'
p425
(lp426
F0.0
aF33.90000678000135
aF0.0
aF0.0
aF0.0
aF0.0
aF0.0
aF0.0
aF240.4000000000001
aF30.100767569573023
aF0.0
aF0.0
aF963.8995180502411
aF205.70312668752567
aF1123.1001123100114
aF0.0
aF0.0
aF0.0
aF11209.49663715101
aF0.0
aF0.0
aF0.0
aF0.0
aF0.0
asS's__Capnocytophaga_leadbetteri'
p427
(lp428
F0.0
aF0.0
aF0.0
aF0.0
aF0.0
aF0.0
aF0.0
aF5630.48925185268
aF0.0
aF0.0
aF0.0
aF0.0
aF0.0
aF0.0
aF0.0
aF0.0
aF0.0
aF0.0
aF0.0
aF0.0
aF0.0
aF0.0
aF0.0
aF0.0
asS's__Selenomonas_sputigena'
p429
(lp430
F0.0
aF0.0
aF0.0
aF0.0
aF0.0
aF0.0
aF0.0
aF748.1643264565372
aF0.0
aF0.0
aF0.0
aF0.0
aF0.0
aF0.0
aF0.0
aF0.0
aF0.0
aF0.0
aF0.0
aF0.0
aF0.0
aF0.0
aF0.0
aF0.0
asS's__Porphyromonas_endodontalis'
p431
(lp432
F0.0
aF0.0
aF0.0
aF0.0
aF0.0
aF0.0
aF0.0
aF243.3859882696557
aF0.0
aF0.0
aF0.0
aF0.0
aF0.0
aF0.0
aF0.0
aF0.0
aF0.0
aF0.0
aF0.0
aF0.0
aF0.0
aF0.0
aF0.0
aF0.0
asS's__Bacteroides_stercoris'
p433
(lp434
F18.800509493807283
aF11918.102383620475
aF12.000003600001088
aF0.0
aF0.0
aF35579.1106737332
aF0.0
aF0.0
aF0.0
aF0.0
aF0.0
aF0.0
aF0.0
aF0.0
aF0.0
aF986.0998027800395
aF33569.13135673547
aF4834.35673405276
aF59004.78229856532
aF2030.7997969200203
aF0.0
aF0.0
aF0.0
aF339.2415231624351
asS's__Alloprevotella_tannerae'
p435
(lp436
F3.8001029827908335
aF0.0
aF0.0
aF0.0
aF0.0
aF0.0
aF0.0
aF109505.6883596975
aF0.0
aF0.0
aF0.0
aF11.50084646229962
aF0.0
aF0.0
aF0.0
aF74.999985000003
aF0.0
aF0.0
aF0.0
aF0.0
aF59.30578824493272
aF0.0
aF0.0
aF0.0
asS's__Porphyromonas_uenonis'
p437
(lp438
F0.0
aF0.0
aF0.0
aF0.0
aF0.0
aF0.0
aF0.0
aF0.0
aF0.0
aF0.0
aF0.0
aF0.0
aF171.0999144500428
aF0.0
aF0.0
aF0.0
aF0.0
aF0.0
aF0.0
aF0.0
aF0.0
aF0.0
aF0.0
aF0.0
asS's__Leuconostoc_gelidum'
p439
(lp440
F0.0
aF0.0
aF0.0
aF0.0
aF0.0
aF0.0
aF0.0
aF0.0
aF0.0
aF0.0
aF134.89991906004855
aF0.0
aF0.0
aF0.0
aF0.0
aF0.0
aF0.0
aF0.0
aF0.0
aF0.0
aF0.0
aF0.0
aF0.0
aF0.0
asS's__Propionibacterium_acidifaciens'
p441
(lp442
F0.0
aF0.0
aF0.0
aF0.0
aF0.0
aF0.0
aF0.0
aF6265.713676641959
aF0.0
aF0.0
aF0.0
aF0.0
aF0.0
aF0.0
aF0.0
aF0.0
aF0.0
aF0.0
aF0.0
aF0.0
aF0.0
aF0.0
aF0.0
aF0.0
asS's__Clostridium_bolteae'
p443
(lp444
F0.0
aF0.0
aF0.0
aF468.7998593600422
aF0.0
aF0.0
aF101.81171852880267
aF0.0
aF0.0
aF0.0
aF0.0
aF0.0
aF0.0
aF0.0
aF0.0
aF0.0
aF163.46101999876552
aF0.0
aF81.09997567000731
aF0.0
aF0.0
aF0.0
aF475.9097447871479
aF0.0
asS's__Prevotella_bivia'
p445
(lp446
F0.0
aF0.0
aF0.0
aF0.0
aF0.0
aF0.0
aF0.0
aF0.0
aF0.0
aF0.0
aF0.0
aF0.0
aF0.0
aF0.0
aF0.0
aF0.0
aF0.0
aF1335.2575927770447
aF0.0
aF0.0
aF0.0
aF0.0
aF378.6873252972135
aF0.0
asS's__Proteobacteria_bacterium_CAG_139'
p447
(lp448
F9.200249326756754
aF0.0
aF1761.1005283301597
aF831.4997505500749
aF0.0
aF640.5001921500576
aF71881.97361516311
aF0.0
aF0.0
aF0.0
aF446.89973186016084
aF0.0
aF86.59995670002166
aF0.0
aF14.400001440000146
aF0.0
aF0.0
aF2392.319848011914
aF0.0
aF632.6999367300064
aF0.0
aF230.62942831505296
aF552.22734362544
aF2.9003550034524226
asS's__Acidaminococcus_intestini'
p449
(lp450
F3021.5818848690797
aF14164.002832800565
aF0.0
aF0.0
aF0.0
aF0.0
aF0.0
aF0.0
aF0.0
aF0.0
aF0.0
aF0.0
aF0.0
aF2934.4446035579745
aF0.0
aF0.0
aF0.0
aF148.25080555106237
aF902.6997291900813
aF0.0
aF174.01698405764407
aF0.0
aF0.0
aF1242.2520516511222
asS's__Prevotella_sp_AM42_24'
p451
(lp452
F0.0
aF16.600003320000663
aF51.10001533000463
aF36.699988990003305
aF0.0
aF40.800012240003674
aF0.0
aF0.0
aF0.0
aF0.0
aF0.0
aF0.0
aF17.79999110000445
aF16.600252323835324
aF0.0
aF0.0
aF0.0
aF0.0
aF0.0
aF0.0
aF41796.379326622286
aF11.40145482563575
aF0.0
aF59.107234725530404
asS's__Catenibacterium_mitsuokai'
p453
(lp454
F0.0
aF0.0
aF0.0
aF0.0
aF0.0
aF0.0
aF0.0
aF0.0
aF239.3000000000001
aF0.0
aF0.0
aF402.1295967383198
aF0.0
aF68.10103513573407
aF0.0
aF0.0
aF0.0
aF30.61049021499668
aF0.0
aF0.0
aF121.91189860130352
aF0.0
aF0.0
aF0.0
asS's__Sellimonas_intestinalis'
p455
(lp456
F0.0
aF0.0
aF0.0
aF0.0
aF0.0
aF0.0
aF223.62573932259605
aF0.0
aF0.0
aF0.0
aF0.0
aF0.0
aF0.0
aF0.0
aF0.0
aF0.0
aF0.0
aF0.0
aF0.0
aF0.0
aF0.0
aF0.0
aF0.0
aF0.0
asS's__Selenomonas_sp_oral_taxon_892'
p457
(lp458
F0.0
aF0.0
aF0.0
aF0.0
aF0.0
aF0.0
aF0.0
aF1758.9214269401382
aF0.0
aF0.0
aF0.0
aF0.0
aF0.0
aF0.0
aF0.0
aF0.0
aF0.0
aF0.0
aF0.0
aF0.0
aF0.0
aF0.0
aF0.0
aF0.0
asS's__Selenomonas_noxia'
p459
(lp460
F0.0
aF0.0
aF0.0
aF0.0
aF0.0
aF0.0
aF0.0
aF1568.2540641608682
aF0.0
aF0.0
aF0.0
aF0.0
aF0.0
aF0.0
aF0.0
aF0.0
aF0.0
aF0.0
aF0.0
aF0.0
aF0.0
aF0.0
aF0.0
aF0.0
asS's__Ruthenibacterium_lactatiformans'
p461
(lp462
F3492.7946547351435
aF0.0
aF410.6001231800372
aF734.8997795300662
aF0.0
aF170.90005127001538
aF2380.473992556543
aF0.0
aF179.9000000000001
aF513.813102234107
aF0.0
aF121.80896513983426
aF1228.1993859003073
aF1306.119853021766
aF0.0
aF0.0
aF596.0224951974571
aF179.26143289305244
aF1957.0994128701761
aF223.5999776400022
aF7.900771115260852
aF365.3466182284859
aF946.1181748511204
aF398.64879461246056
asS's__Bacteroides_xylanisolvens'
p463
(lp464
F0.0
aF0.0
aF129.40003882001173
aF0.0
aF0.0
aF820.4002461200738
aF65364.72347967252
aF0.0
aF212.3000000000001
aF0.0
aF11.299993220004067
aF458.7337628049423
aF1562.8992185503912
aF12.600191522911148
aF7957.20079572008
aF0.0
aF13.10489205620458
aF159.45464510687813
aF0.0
aF110.6999889300011
aF453.6442756813066
aF17817.87356066634
aF61769.34401072886
aF137.11678309425074
asS's__Haemophilus_haemolyticus'
p465
(lp466
F0.0
aF0.0
aF0.0
aF0.0
aF0.0
aF0.0
aF0.0
aF1471.4198526339358
aF0.0
aF0.0
aF0.0
aF0.0
aF0.0
aF0.0
aF0.0
aF0.0
aF0.0
aF0.0
aF0.0
aF0.0
aF0.0
aF0.0
aF0.0
aF0.0
asS's__Victivallis_vadensis'
p467
(lp468
F0.0
aF0.0
aF852.8002558400773
aF0.0
aF943.0458320274366
aF0.0
aF0.0
aF0.0
aF437.1000000000002
aF0.0
aF0.0
aF0.0
aF813.3995933002035
aF0.0
aF0.0
aF12.199997560000488
aF542.2024041574718
aF0.0
aF0.0
aF0.0
aF0.0
aF0.0
aF0.0
aF527.4645616623475
asS's__Prevotella_salivae'
p469
(lp470
F0.0
aF0.0
aF0.0
aF0.0
aF0.0
aF0.0
aF0.0
aF35183.930482639524
aF0.0
aF0.0
aF0.0
aF0.0
aF0.0
aF0.0
aF0.0
aF0.0
aF0.0
aF0.0
aF0.0
aF0.0
aF0.0
aF0.0
aF0.0
aF0.0
asS's__Coprococcus_catus'
p471
(lp472
F13.300360439767918
aF0.0
aF19.800005940001796
aF218.29993451001965
aF32.60158443700364
aF0.0
aF996.5146988418367
aF0.0
aF11.600000000000007
aF188.50480687257524
aF166.49990010005993
aF444.832739689641
aF853.8995730502136
aF4368.366399169267
aF1262.500126250013
aF0.0
aF338.8264839264497
aF281.3964345581231
aF1004.8996985300905
aF0.0
aF14.301395816231668
aF834.6064957888625
aF872.6012218417565
aF165.020198472293
asS's__Dialister_sp_CAG_357'
p473
(lp474
F0.0
aF20091.604018320802
aF13775.604132681248
aF0.0
aF0.0
aF16501.504950451483
aF0.0
aF0.0
aF0.0
aF0.0
aF9199.29448042331
aF0.0
aF0.0
aF0.0
aF0.0
aF0.0
aF13284.158976545943
aF36215.911192765765
aF0.0
aF53140.49468595053
aF0.0
aF0.0
aF1449.7343087315933
aF0.0
asS's__Streptococcus_thermophilus'
p475
(lp476
F2078.4563261664393
aF0.0
aF786.1002358300713
aF0.0
aF25.701249080705328
aF403.20012096003626
aF8157.538932731158
aF0.0
aF0.0
aF1824.5465259364112
aF7991.895204862875
aF5452.801326177604
aF185.09990745004632
aF1930.22933948596
aF0.0
aF78.49998430000315
aF2111.788330583807
aF1889.5475479446807
aF0.0
aF1093.899890610011
aF1519.9483469586635
aF999.5275397140673
aF2344.840720270094
aF4729.178851491422
asS's___Collinsella__massiliensis'
p477
(lp478
F0.0
aF0.0
aF0.0
aF0.0
aF0.0
aF0.0
aF0.0
aF0.0
aF0.0
aF0.0
aF0.0
aF0.0
aF0.0
aF0.0
aF0.0
aF0.0
aF0.0
aF0.0
aF73.79997786000665
aF0.0
aF0.0
aF0.0
aF0.0
aF118.91455514154933
asS's__Blautia_wexlerae'
p479
(lp480
F53.501449889292
aF0.0
aF2938.3008814902664
aF1940.7994177601747
aF825.5401212498928
aF747.4002242200671
aF12130.896266160236
aF0.0
aF211.0000000000001
aF510.9130282822212
aF0.0
aF741.8546004985965
aF105.8999470500265
aF5401.682105568005
aF1892.3001892300192
aF27.69999446000111
aF114.84287084368593
aF0.0
aF926.3997220800834
aF0.0
aF0.0
aF679.7867407881245
aF135.83132270301527
aF190.52332005437464
asS's__Anaerostipes_hadrus'
p481
(lp482
F0.0
aF0.0
aF1201.4003604201089
aF146.79995596001322
aF0.0
aF0.0
aF3036.8495413822134
aF0.0
aF0.0
aF302.10770374644557
aF0.0
aF0.0
aF1117.8994410502796
aF1368.520801516183
aF806.2000806200082
aF0.0
aF442.96535896850287
aF0.0
aF6940.997917700625
aF0.0
aF0.0
aF266.03394593150085
aF611.2409521635687
aF44.105398500776495
asS's__Alistipes_putredinis'
p483
(lp484
F437.91186741160686
aF17330.90346618069
aF147094.44412833333
aF128.8999613300116
aF8047.491108067853
aF108297.93248937975
aF66706.67793863073
aF0.0
aF493.8000000000002
aF39920.81798085851
aF50673.06959615823
aF2504.884359488857
aF81741.65912917045
aF312.30474703215486
aF9621.700962170098
aF48076.99038460193
aF92018.450487567
aF139434.28412917108
aF63421.380973585714
aF269.6999730300027
aF1013.2988979724423
aF165599.5305000918
aF1937.4467752263668
aF144.6177012066277
asS's__Prevotella_sp_CAG_1092'
p485
(lp486
F0.0
aF0.0
aF0.0
aF0.0
aF0.0
aF0.0
aF0.0
aF0.0
aF0.0
aF0.0
aF0.0
aF0.0
aF0.0
aF0.0
aF0.0
aF0.0
aF0.0
aF0.0
aF0.0
aF47214.99527850047
aF0.0
aF0.0
aF0.0
aF0.0
asS's__Eubacterium_eligens'
p487
(lp488
F122.803327970188
aF1000.10020002004
aF154.90004647001405
aF39.799988060003585
aF4114.199950117576
aF5278.2015834604745
aF13737.981241640913
aF0.0
aF3409.500000000002
aF26447.574413147533
aF25546.784671929196
aF5544.108046352209
aF22755.788622105694
aF52844.40323492917
aF4763.500476350049
aF2253.49954930009
aF76467.44529732948
aF13373.383058374106
aF27060.591881822438
aF398.4999601500039
aF7422.824467668047
aF12765.728907008533
aF1365.514887733111
aF12.801566911790003
asS's__Haemophilus_sp_HMSC71H05'
p489
(lp490
F0.0
aF0.0
aF0.0
aF0.0
aF0.0
aF0.0
aF0.0
aF0.0
aF0.0
aF0.0
aF0.0
aF4.400323863836377
aF0.0
aF77.50117801790587
aF0.0
aF0.0
aF30.111240526088384
aF0.0
aF0.0
aF0.0
aF0.0
aF61.70787392471278
aF73.31690687872623
aF0.0
asS's__Megamonas_hypermegale'
p491
(lp492
F0.0
aF0.0
aF0.0
aF0.0
aF0.0
aF0.0
aF0.0
aF0.0
aF0.0
aF0.0
aF0.0
aF0.0
aF0.0
aF0.0
aF0.0
aF0.0
aF0.0
aF0.0
aF0.0
aF0.0
aF0.0
aF0.0
aF219.65065144022208
aF0.0
asS's__Porphyromonas_somerae'
p493
(lp494
F111.40301902181548
aF37.6000075200015
aF9.800002940000887
aF0.0
aF29.10141432873638
aF0.0
aF0.0
aF229.58111100651863
aF21.80000000000001
aF53.50136428478926
aF0.0
aF32.70240689714762
aF6.799996600001701
aF0.0
aF136.00001360000138
aF105.09997898000421
aF0.0
aF7.202468285881571
aF0.0
aF0.0
aF51.505026890624535
aF100.41281267489731
aF0.0
aF0.0
asS's__Clostridium_saccharolyticum'
p495
(lp496
F0.0
aF0.0
aF0.0
aF0.0
aF0.0
aF0.0
aF328.63782621379727
aF0.0
aF0.0
aF0.0
aF0.0
aF0.0
aF0.0
aF0.0
aF90.50000905000093
aF0.0
aF0.0
aF0.0
aF0.0
aF0.0
aF0.0
aF0.0
aF0.0
aF0.0
asS's__Coprobacillus_cateniformis'
p497
(lp498
F0.0
aF0.0
aF0.0
aF0.0
aF0.0
aF0.0
aF0.0
aF0.0
aF0.0
aF0.0
aF0.0
aF0.0
aF1876.6990616504695
aF2124.9322989709444
aF0.0
aF0.0
aF0.0
aF0.0
aF0.0
aF0.0
aF0.0
aF0.0
aF0.0
aF0.0
asS's__Megasphaera_elsdenii'
p499
(lp500
F0.0
aF0.0
aF0.0
aF0.0
aF0.0
aF0.0
aF0.0
aF0.0
aF0.0
aF0.0
aF0.0
aF0.0
aF0.0
aF253.80385781863882
aF0.0
aF0.0
aF0.0
aF3413.1696932538784
aF0.0
aF0.0
aF483.74721372806
aF0.0
aF0.0
aF0.0
asS's__Turicimonas_muris'
p501
(lp502
F10.100273717417743
aF0.0
aF858.0002574000778
aF185.89994423001673
aF0.0
aF1557.5004672501402
aF462.3532168552601
aF0.0
aF0.0
aF0.0
aF0.0
aF0.0
aF0.0
aF0.0
aF33.00000330000034
aF0.0
aF769.9874363099744
aF0.0
aF0.0
aF1191.8998808100118
aF0.0
aF0.0
aF57.41323949302708
aF0.0
asS's__Collinsella_stercoris'
p503
(lp504
F0.0
aF13.000002600000517
aF0.0
aF0.0
aF0.0
aF0.0
aF0.0
aF0.0
aF19.70000000000001
aF18.400469211964904
aF60.49996370002177
aF44.10324599890551
aF22.199988900005554
aF0.0
aF0.0
aF2.199999560000088
aF13.40500408802606
aF0.0
aF32.59999022000294
aF0.0
aF0.0
aF9.101161308182922
aF0.0
aF0.0
asS's__Lactobacillus_mucosae'
p505
(lp506
F0.0
aF0.0
aF0.0
aF0.0
aF0.0
aF0.0
aF0.0
aF0.0
aF0.0
aF0.0
aF0.0
aF0.0
aF0.0
aF0.0
aF0.0
aF0.0
aF0.0
aF0.0
aF0.0
aF0.0
aF0.0
aF0.0
aF0.0
aF702.085935318483
asS's__Prevotella_sp_885'
p507
(lp508
F0.0
aF0.0
aF0.0
aF0.0
aF0.0
aF0.0
aF0.0
aF0.0
aF19532.700000000008
aF0.0
aF0.0
aF0.0
aF0.0
aF0.0
aF0.0
aF0.0
aF0.0
aF0.0
aF0.0
aF0.0
aF0.0
aF0.0
aF0.0
aF0.0
asS's__Ruminococcus_sp_CAG_330'
p509
(lp510
F0.0
aF225.00004500000898
aF0.0
aF0.0
aF0.0
aF0.0
aF0.0
aF0.0
aF0.0
aF0.0
aF0.0
aF0.0
aF0.0
aF0.0
aF0.0
aF6.899998620000277
aF0.0
aF0.0
aF0.0
aF0.0
aF0.0
aF0.0
aF0.0
aF8139.696298826977
asS's__Ruminococcus_obeum_CAG_39'
p511
(lp512
F0.0
aF0.0
aF0.0
aF0.0
aF0.0
aF0.0
aF0.0
aF0.0
aF0.0
aF39.70101237581559
aF0.0
aF0.0
aF0.0
aF0.0
aF13.70000137000014
aF0.0
aF0.0
aF0.0
aF0.0
aF0.0
aF0.0
aF21.10269270358898
aF52.61213235772168
aF0.0
asS's__Clostridium_sp_CAG_242'
p513
(lp514
F0.0
aF0.0
aF0.0
aF0.0
aF0.0
aF0.0
aF497.8573033756185
aF0.0
aF0.0
aF0.0
aF0.0
aF0.0
aF0.0
aF0.0
aF0.0
aF0.0
aF116.74358037855531
aF0.0
aF0.0
aF0.0
aF0.0
aF0.0
aF0.0
aF0.0
asS's__Streptococcus_gordonii'
p515
(lp516
F0.0
aF134.20002684000536
aF0.0
aF0.0
aF0.0
aF13.400004020001205
aF0.0
aF0.0
aF0.0
aF0.0
aF11.099993340003994
aF68.90507141325598
aF0.0
aF0.0
aF0.0
aF0.0
aF0.0
aF0.0
aF0.0
aF0.0
aF515.8503469938668
aF0.0
aF111.5257178305317
aF0.0
asS's__Cardiobacterium_hominis'
p517
(lp518
F0.0
aF0.0
aF0.0
aF0.0
aF0.0
aF0.0
aF0.0
aF5090.79857913801
aF0.0
aF0.0
aF0.0
aF0.0
aF0.0
aF0.0
aF0.0
aF0.0
aF0.0
aF0.0
aF0.0
aF0.0
aF0.0
aF0.0
aF0.0
aF0.0
asS's__Veillonella_denticariosi'
p519
(lp520
F0.0
aF0.0
aF0.0
aF0.0
aF0.0
aF0.0
aF0.0
aF136.04806578164067
aF0.0
aF0.0
aF0.0
aF0.0
aF0.0
aF0.0
aF0.0
aF0.0
aF0.0
aF0.0
aF0.0
aF0.0
aF14.401405577184336
aF0.0
aF0.0
aF0.0
asS's__Bacteroides_thetaiotaomicron'
p521
(lp522
F0.0
aF0.0
aF56.50001695000512
aF0.0
aF133.30647869486458
aF6467.101940130581
aF0.0
aF0.0
aF0.0
aF3140.4800822420966
aF0.0
aF314.42314154321747
aF4033.797983101009
aF13459.004576869569
aF8963.700896370092
aF370.19992596001487
aF487.5820143659627
aF1533.5255392022848
aF27.299991810002457
aF29.29999707000029
aF4900.978335485545
aF712.4909138406059
aF13290.564804243857
aF0.0
asS's__Coprococcus_comes'
p523
(lp524
F471.9127888365774
aF124.90002498000499
aF1203.0003609001092
aF0.0
aF1120.9544783876497
aF267.000080100024
aF1154.1328406899636
aF0.0
aF941.6000000000005
aF449.41145999222977
aF1133.9993196004082
aF2873.4114830851536
aF8523.595738202132
aF1508.0229219484136
aF1335.4001335400137
aF4.299999140000173
aF0.0
aF522.0789164446655
aF4130.398760880372
aF0.0
aF201.91970736343873
aF39681.86340577057
aF2511.8792393525946
aF360.74415508458236
asS's__Prevotella_stercorea'
p525
(lp526
F0.0
aF0.0
aF132.100039630012
aF121.49996355001095
aF0.0
aF0.0
aF0.0
aF0.0
aF0.0
aF0.0
aF0.0
aF0.0
aF89.8999550500225
aF92.90141210146393
aF0.0
aF0.0
aF0.0
aF0.0
aF25.299992410002275
aF23922.797607720237
aF54396.60910904906
aF0.0
aF73.71699914000168
aF31512.95718595956
asS's__Bacteroides_caccae'
p527
(lp528
F1358.6368190577964
aF0.0
aF5985.701795710543
aF30.199990940002717
aF0.0
aF269.50008085002423
aF0.0
aF0.0
aF256.60000000000014
aF4635.318200614115
aF1735.7989585206246
aF2083.2533274448992
aF96777.75161112421
aF32.30049096746271
aF0.0
aF224.999955000009
aF7980.479112852828
aF79712.41744545856
aF1715.2994854101544
aF0.0
aF0.0
aF0.0
aF42164.22306983989
aF0.0
asS's__Klebsiella_pneumoniae'
p529
(lp530
F0.0
aF0.0
aF0.0
aF0.0
aF0.0
aF0.0
aF699.2804871840749
aF0.0
aF0.0
aF0.0
aF0.0
aF0.0
aF0.0
aF0.0
aF0.0
aF0.0
aF0.0
aF0.0
aF1858.7994423601674
aF0.0
aF0.0
aF0.0
aF0.0
aF0.0
asS's__Bifidobacterium_adolescentis'
p531
(lp532
F4769.22924611257
aF6530.2013060402605
aF3156.6009469802857
aF0.0
aF1980.896271558798
aF0.0
aF0.0
aF0.0
aF35204.30000000002
aF0.0
aF2838.0982971410212
aF96.50710292277508
aF420.79978960010527
aF0.0
aF0.0
aF88.59998228000354
aF0.0
aF1686.0778188685263
aF1267.099619870114
aF2009.8997990100197
aF103.81013186887043
aF2190.9795689930033
aF418.9966206207151
aF4379.636067454657
asS's__Alloprevotella_rava'
p533
(lp534
F0.0
aF0.0
aF0.0
aF0.0
aF0.0
aF0.0
aF0.0
aF32474.773337420116
aF0.0
aF0.0
aF0.0
aF0.0
aF0.0
aF0.0
aF0.0
aF0.0
aF0.0
aF0.0
aF0.0
aF0.0
aF0.0
aF0.0
aF0.0
aF0.0
asS's__Clostridium_sp_CAG_253'
p535
(lp536
F0.0
aF0.0
aF841.0002523000761
aF0.0
aF0.0
aF0.0
aF0.0
aF0.0
aF0.0
aF0.0
aF0.0
aF0.0
aF0.0
aF3937.359847869688
aF0.0
aF0.0
aF0.0
aF0.0
aF0.0
aF58.09999419000058
aF0.0
aF0.0
aF0.0
aF0.0
asS's__Clostridium_symbiosum'
p537
(lp538
F0.0
aF0.0
aF0.0
aF0.0
aF0.0
aF0.0
aF0.0
aF0.0
aF0.0
aF0.0
aF0.0
aF0.0
aF31.099984450007778
aF363.0055176838688
aF0.0
aF0.0
aF0.0
aF0.0
aF0.0
aF0.0
aF0.0
aF0.0
aF133.6308152660003
aF0.0
asS's__Alistipes_timonensis'
p539
(lp540
F0.0
aF0.0
aF0.0
aF884.6997345900796
aF0.0
aF105.50003165000949
aF0.0
aF0.0
aF0.0
aF0.0
aF0.0
aF0.0
aF0.0
aF0.0
aF0.0
aF0.0
aF130.24862181052185
aF0.0
aF0.0
aF0.0
aF0.0
aF0.0
aF45.6105177854013
aF0.0
asS's__Lactobacillus_ruminis'
p541
(lp542
F304.7082575937808
aF3127.800625560125
aF1237.5003712501123
aF0.0
aF0.0
aF0.0
aF0.0
aF0.0
aF0.0
aF0.0
aF0.0
aF0.0
aF0.0
aF0.0
aF0.0
aF0.0
aF0.0
aF0.0
aF0.0
aF0.0
aF0.0
aF0.0
aF0.0
aF0.0
asS's__Klebsiella_variicola'
p543
(lp544
F0.0
aF0.0
aF0.0
aF0.0
aF0.0
aF0.0
aF103.61192573265183
aF0.0
aF0.0
aF0.0
aF0.0
aF0.0
aF0.0
aF0.0
aF0.0
aF0.0
aF0.0
aF0.0
aF228.6999313900206
aF0.0
aF0.0
aF0.0
aF0.0
aF0.0
asS's__Oscillibacter_sp_CAG_241'
p545
(lp546
F19272.12227451364
aF0.0
aF2995.4008986202716
aF14.299995710001289
aF2445.2188376355093
aF2424.500727350218
aF0.0
aF0.0
aF13910.600000000008
aF0.0
aF0.0
aF1454.0070149162973
aF9906.49504675248
aF427.5064980987711
aF184.4000184400019
aF33.899993220001356
aF4213.873038805386
aF17906.636604364317
aF4096.498771050369
aF19.599998040000195
aF4089.1991058327303
aF36.50465799436007
aF0.0
aF2343.3868305480587
asS's__Fretibacterium_fastidiosum'
p547
(lp548
F0.0
aF0.0
aF0.0
aF0.0
aF0.0
aF0.0
aF0.0
aF1637.178415134067
aF0.0
aF0.0
aF0.0
aF0.0
aF0.0
aF0.0
aF0.0
aF0.0
aF0.0
aF0.0
aF0.0
aF0.0
aF0.0
aF0.0
aF0.0
aF0.0
asS's__Ruminococcus_torques'
p549
(lp550
F238.30645810501463
aF0.0
aF0.0
aF0.0
aF431.8209864999439
aF340.5001021500306
aF0.0
aF0.0
aF865.4000000000004
aF770.8196559012255
aF915.6994505803295
aF3151.131923309554
aF493.8997530501236
aF599.7091155785567
aF799.9000799900082
aF0.0
aF419.35654579854656
aF460.25773032418215
aF2435.8992692302195
aF0.0
aF856.0835537548467
aF130.1166028785273
aF273.16299138581354
aF675.2826545969227
asS's__Alistipes_finegoldii'
p551
(lp552
F1068.6289598448118
aF0.0
aF35716.61071498324
aF3431.198970640309
aF64.2031202716452
aF5721.401716420514
aF2072.7385722096615
aF0.0
aF28893.800000000014
aF455.8116231963915
aF75.2999548200271
aF18.401354339679393
aF1275.799362100319
aF65331.69304173424
aF5901.20059012006
aF120.99997580000485
aF7625.546616551957
aF7744.153921548916
aF10911.196726640983
aF21.699997830000214
aF908.2886489721399
aF20795.853550913096
aF2059.2748687847416
aF31.603868313481573
asS's__Prevotella_buccalis'
p553
(lp554
F0.0
aF0.0
aF0.0
aF0.0
aF0.0
aF0.0
aF0.0
aF0.0
aF0.0
aF0.0
aF0.0
aF0.0
aF8915.295542352229
aF0.0
aF111.80001118000114
aF0.0
aF0.0
aF0.0
aF0.0
aF0.0
aF0.0
aF0.0
aF0.0
aF0.0
asS's__Atopobium_parvulum'
p555
(lp556
F0.0
aF0.0
aF0.0
aF0.0
aF0.0
aF0.0
aF0.0
aF828.3926711307106
aF0.0
aF0.0
aF0.0
aF0.0
aF0.0
aF0.0
aF0.0
aF0.0
aF0.0
aF0.0
aF0.0
aF0.0
aF0.0
aF0.0
aF0.0
aF0.0
asS's__Desulfovibrionaceae_bacterium'
p557
(lp558
F0.0
aF0.0
aF0.0
aF0.0
aF0.0
aF6551.001965300589
aF0.0
aF0.0
aF0.0
aF0.0
aF0.0
aF225.5165980216143
aF878.3995608002198
aF0.0
aF0.0
aF0.0
aF0.0
aF0.0
aF745.099776470067
aF0.0
aF0.0
aF0.0
aF0.0
aF0.0
asS's__Rothia_dentocariosa'
p559
(lp560
F0.0
aF0.0
aF0.0
aF0.0
aF0.0
aF0.0
aF0.0
aF11143.737082311181
aF0.0
aF0.0
aF0.0
aF0.0
aF0.0
aF0.0
aF0.0
aF0.0
aF0.0
aF0.0
aF0.0
aF0.0
aF0.0
aF0.0
aF21.90505130483089
aF0.0
asS's__Bacteroides_massiliensis'
p561
(lp562
F0.0
aF0.0
aF0.0
aF0.0
aF0.0
aF32208.209662462894
aF0.0
aF0.0
aF0.0
aF0.0
aF0.0
aF126.60931844583756
aF0.0
aF36.40055328840998
aF0.0
aF1547.5996904800622
aF6117.983843368729
aF3433.7767552940395
aF0.0
aF383.6999616300038
aF0.0
aF0.0
aF30088.13832469767
aF0.0
asS's__Bacteroides_cellulosilyticus'
p563
(lp564
F22.800617896745
aF0.0
aF0.0
aF0.0
aF0.0
aF6156.601846980553
aF0.0
aF0.0
aF298.8000000000001
aF416.61062357090105
aF8.599994840003095
aF0.0
aF11555.29422235289
aF0.0
aF34453.30344533035
aF8.899998220000356
aF8988.255315709353
aF143.14905718189627
aF3495.6989512903147
aF4737.7995262200475
aF384.337511341107
aF2087.666386230883
aF3327.7673831585557
aF0.0
asS's__Porphyromonas_gingivalis'
p565
(lp566
F0.0
aF0.0
aF0.0
aF0.0
aF0.0
aF0.0
aF0.0
aF1982.500417397467
aF0.0
aF0.0
aF0.0
aF0.0
aF0.0
aF0.0
aF0.0
aF0.0
aF0.0
aF0.0
aF0.0
aF0.0
aF0.0
aF0.0
aF0.0
aF0.0
asS's__Bacteroides_finegoldii'
p567
(lp568
F0.0
aF0.0
aF0.0
aF0.0
aF0.0
aF2945.500883650265
aF855.5984793849773
aF0.0
aF0.0
aF0.0
aF0.0
aF75.30554248792708
aF0.0
aF0.0
aF0.0
aF163.89996722000657
aF1054.1935304449148
aF0.0
aF3494.498951650315
aF0.0
aF0.0
aF0.0
aF0.0
aF0.0
asS's__Capnocytophaga_sp_oral_taxon_332'
p569
(lp570
F0.0
aF0.0
aF0.0
aF0.0
aF0.0
aF0.0
aF0.0
aF8388.863785575444
aF0.0
aF0.0
aF0.0
aF0.0
aF0.0
aF0.0
aF0.0
aF0.0
aF0.0
aF0.0
aF0.0
aF0.0
aF0.0
aF0.0
aF0.0
aF0.0
asS's__Oxalobacter_formigenes'
p571
(lp572
F0.0
aF0.0
aF0.0
aF0.0
aF0.0
aF0.0
aF0.0
aF0.0
aF0.0
aF0.0
aF0.0
aF0.0
aF0.0
aF0.0
aF0.0
aF0.0
aF4935.742512679983
aF0.0
aF0.0
aF0.0
aF0.0
aF0.0
aF0.0
aF0.0
asS's__Parasutterella_excrementihominis'
p573
(lp574
F1492.7404532662836
aF0.0
aF34822.41044672316
aF19988.7940033618
aF0.0
aF9986.402995920898
aF3224.1711020938515
aF0.0
aF110.00000000000006
aF258.6065944681589
aF160.79990352005788
aF0.0
aF1153.0994234502884
aF263.40400374085687
aF1236.1001236100126
aF0.0
aF0.0
aF1040.8567015916356
aF26.299992110002368
aF26494.097350590262
aF0.0
aF5866.348546074479
aF10028.112482738517
aF352.54315128171686
asS's__Bacteroides_sp_CAG_443'
p575
(lp576
F0.0
aF0.0
aF0.0
aF0.0
aF0.0
aF0.0
aF0.0
aF0.0
aF0.0
aF0.0
aF0.0
aF359.92649058970727
aF0.0
aF0.0
aF0.0
aF0.0
aF13728.624895673553
aF0.0
aF0.0
aF0.0
aF0.0
aF0.0
aF0.0
aF0.0
asS's__Ruminococcus_sp_CAG_403'
p577
(lp578
F0.0
aF0.0
aF0.0
aF0.0
aF42.00204129920714
aF0.0
aF0.0
aF0.0
aF49.10000000000002
aF0.0
aF0.0
aF0.0
aF0.0
aF0.0
aF0.0
aF0.0
aF3437.983399202922
aF0.0
aF0.0
aF0.0
aF0.0
aF0.0
aF0.0
aF0.0
asS's__Bacteroides_faecis_CAG_32'
p579
(lp580
F0.0
aF0.0
aF4271.001281300387
aF0.0
aF0.0
aF0.0
aF0.0
aF0.0
aF0.0
aF0.0
aF0.0
aF0.0
aF9186.795406602298
aF0.0
aF0.0
aF0.0
aF0.0
aF0.0
aF0.0
aF0.0
aF0.0
aF43034.291175554
aF0.0
aF0.0
asS's__Lachnospira_pectinoschiza'
p581
(lp582
F9074.04590664407
aF15168.903033780605
aF937.5002812500849
aF26.799991960002416
aF2097.7019483146883
aF11395.403418621025
aF0.0
aF0.0
aF1414.5000000000007
aF0.0
aF35230.57886165268
aF3924.0888129366303
aF30387.084806457602
aF18946.987994217514
aF0.0
aF3.9999992000001603
aF17177.112215990226
aF1527.5234822973835
aF0.0
aF18796.698120330188
aF5168.904485077745
aF28495.536030397478
aF12650.517209268455
aF5358.355862757601
asS's__Prevotella_melaninogenica'
p583
(lp584
F250.20678060375437
aF245.90004918000983
aF97.1000291300088
aF105.3999683800095
aF131.60639607084906
aF230.4000691200207
aF89.61031414715833
aF176876.09032271104
aF81.30000000000004
aF108.10275662029382
aF188.19988708006773
aF145.81073166985084
aF131.99993400003302
aF61.70093785425538
aF96.20000962000098
aF117.79997644000473
aF62.823451994629586
aF341.71710645238124
aF157.8999526300142
aF223.5999776400022
aF339.1330993905006
aF65.80839715147653
aF18.30422095335184
aF157.31925587691933
asS's__Butyricimonas_synergistica'
p585
(lp586
F20.500555565055812
aF0.0
aF495.5001486500449
aF0.0
aF0.0
aF38.40001152000345
aF0.0
aF0.0
aF104.80000000000005
aF138.70353694019198
aF44.69997318001609
aF0.0
aF707.9996460001771
aF7149.908678611915
aF0.0
aF115.29997694000463
aF169.5632979791356
aF2075.211174869628
aF0.0
aF0.0
aF232.4226844540028
aF2644.9374940242374
aF22.005074370149753
aF0.0
asS's__Actinomyces_sp_HPA0247'
p587
(lp588
F0.0
aF0.0
aF0.0
aF0.0
aF0.0
aF0.0
aF0.0
aF8644.454085628455
aF0.0
aF0.0
aF0.0
aF0.0
aF0.0
aF0.0
aF0.0
aF0.0
aF0.0
aF0.0
aF0.0
aF0.0
aF0.0
aF0.0
aF0.0
aF0.0
asS's__Clostridium_disporicum'
p589
(lp590
F0.0
aF0.0
aF0.0
aF0.0
aF0.0
aF0.0
aF0.0
aF0.0
aF0.0
aF0.0
aF0.0
aF0.0
aF0.0
aF0.0
aF0.0
aF0.0
aF0.0
aF0.0
aF0.0
aF0.0
aF146.31428027375478
aF0.0
aF0.0
aF0.0
asS's__Blautia_obeum'
p591
(lp592
F0.0
aF0.0
aF57.00001710000517
aF0.0
aF0.0
aF4.100001230000369
aF0.0
aF0.0
aF0.0
aF38.400979224970236
aF160.0999039400576
aF9.800721333090111
aF939.399530300235
aF545.7082947660804
aF31.30000313000032
aF0.0
aF124.44645586197325
aF464.8593072846065
aF192.79994216001737
aF0.0
aF0.0
aF40.205130174610275
aF145.1334677776695
aF0.0
asS's__Bacteroides_uniformis'
p593
(lp594
F4517.72243027786
aF28377.00567540113
aF740.7002222100671
aF156194.25314172407
aF4794.7330240249685
aF140448.44213453264
aF144.31661084190793
aF278.59842882490386
aF10819.600000000006
aF33196.646514486114
aF64352.76138834316
aF1694.9247464613388
aF80961.15951942025
aF59198.899823277316
aF152809.51528095154
aF10092.497981500406
aF73526.74753485476
aF12026.621523196
aF89299.87321003804
aF33025.69669743033
aF3179.2102909243954
aF158289.09768886506
aF92050.62687455726
aF272.13330911703594
asS's__Prevotella_veroralis'
p595
(lp596
F0.0
aF0.0
aF0.0
aF0.0
aF0.0
aF0.0
aF0.0
aF6972.463371309084
aF0.0
aF0.0
aF0.0
aF0.0
aF0.0
aF0.0
aF0.0
aF0.0
aF0.0
aF0.0
aF0.0
aF0.0
aF0.0
aF0.0
aF0.0
aF0.0
asS's__Clostridium_clostridioforme'
p597
(lp598
F0.0
aF0.0
aF0.0
aF0.0
aF0.0
aF0.0
aF147.71700222695634
aF0.0
aF0.0
aF0.0
aF0.0
aF0.0
aF0.0
aF7.100107921640409
aF0.0
aF0.0
aF0.0
aF0.0
aF0.0
aF0.0
aF0.0
aF0.0
aF0.0
aF0.0
asS's__Prevotella_sp_oral_taxon_299'
p599
(lp600
F0.0
aF0.0
aF0.0
aF0.0
aF0.0
aF0.0
aF0.0
aF1043.6687281616596
aF0.0
aF0.0
aF0.0
aF0.0
aF0.0
aF0.0
aF0.0
aF0.0
aF0.0
aF0.0
aF0.0
aF0.0
aF0.0
aF0.0
aF0.0
aF0.0
asS's__Weissella_cibaria'
p601
(lp602
F0.0
aF470.60009412001875
aF0.0
aF0.0
aF0.0
aF0.0
aF70.00805792746745
aF0.0
aF0.0
aF0.0
aF0.0
aF0.0
aF0.0
aF0.0
aF0.0
aF0.0
aF0.0
aF0.0
aF0.0
aF0.0
aF0.0
aF0.0
aF0.0
aF0.0
asS's__Streptococcus_vestibularis'
p603
(lp604
F0.0
aF133.0000266000053
aF0.0
aF0.0
aF0.0
aF0.0
aF0.0
aF0.0
aF0.0
aF0.0
aF0.0
aF0.0
aF0.0
aF0.0
aF0.0
aF0.0
aF0.0
aF0.0
aF0.0
aF0.0
aF168.61645696619996
aF0.0
aF0.0
aF0.0
asS's__Asaccharobacter_celatus'
p605
(lp606
F47.401284574811974
aF178.90003578000716
aF0.0
aF0.0
aF0.0
aF573.1001719300515
aF0.0
aF0.0
aF52.50000000000003
aF7.900201455137106
aF159.59990424005744
aF0.0
aF155.99992200003902
aF54.100822332499455
aF46.700004670000475
aF3.7999992400001523
aF410.95340890754517
aF53.91847786236344
aF0.0
aF1341.4998658500133
aF0.0
aF101.91300409932306
aF0.0
aF0.0
asS's__Prevotella_denticola'
p607
(lp608
F0.0
aF0.0
aF0.0
aF0.0
aF0.0
aF0.0
aF0.0
aF461.06289352028074
aF0.0
aF0.0
aF0.0
aF0.0
aF0.0
aF0.0
aF0.0
aF0.0
aF0.0
aF0.0
aF0.0
aF0.0
aF0.0
aF0.0
aF0.0
aF0.0
asS's__Campylobacter_gracilis'
p609
(lp610
F0.0
aF0.0
aF0.0
aF0.0
aF0.0
aF0.0
aF0.0
aF980.0462503402454
aF0.0
aF0.0
aF0.0
aF0.0
aF0.0
aF0.0
aF0.0
aF0.0
aF0.0
aF0.0
aF0.0
aF0.0
aF0.0
aF0.0
aF0.0
aF0.0
asS's__Eggerthella_lenta'
p611
(lp612
F0.0
aF0.0
aF0.0
aF0.0
aF0.0
aF0.0
aF2653.3053954510165
aF0.0
aF0.0
aF0.0
aF0.0
aF0.0
aF0.0
aF0.0
aF0.0
aF0.0
aF0.0
aF0.0
aF0.0
aF83.29999167000084
aF0.0
aF0.0
aF693.4599118556738
aF0.0
asS's__Bacteroides_vulgatus'
p613
(lp614
F5027.636248942346
aF15066.5030133006
aF1224.400367320111
aF399.29988021003595
aF3558.972966086152
aF135875.34076260222
aF244367.3266793008
aF1275.0504753329353
aF2723.500000000001
aF66934.60683247422
aF404141.35751518543
aF10401.46554786432
aF151304.92434753786
aF269.5040964622662
aF302258.73022587306
aF35247.992950401414
aF76970.13295063046
aF71622.34497762384
aF348249.1955252414
aF18526.598147340184
aF3354.827431157282
aF260513.54152789892
aF195563.49694239488
aF780.5955448946952
asS's__Ruminococcus_callidus'
p615
(lp616
F33.100897034309625
aF0.0
aF0.0
aF0.0
aF0.0
aF0.0
aF0.0
aF0.0
aF0.0
aF0.0
aF0.0
aF0.0
aF48.79997560001221
aF0.0
aF0.0
aF0.0
aF17.006348469883807
aF0.0
aF0.0
aF0.0
aF58.60571991826404
aF2.9003700872231297
aF0.0
aF0.0
asS's__Eubacterium_sp_CAG_38'
p617
(lp618
F9114.246996093594
aF17659.103531820703
aF1592.1004776301443
aF10743.596776920967
aF0.0
aF310.0000930000279
aF0.0
aF0.0
aF435.6000000000002
aF0.0
aF2418.9985486008704
aF1637.6205288709243
aF726.0996369501817
aF4123.062670552592
aF16780.10167801017
aF203.4999593000082
aF11431.367329424074
aF6840.644288797772
aF0.0
aF0.0
aF2483.9424327814404
aF1421.9814448323605
aF0.0
aF0.0
asS's__Bacteroides_coagulans'
p619
(lp620
F0.0
aF0.0
aF0.0
aF0.0
aF0.0
aF0.0
aF0.0
aF0.0
aF0.0
aF0.0
aF0.0
aF0.0
aF654.2996728501637
aF0.0
aF0.0
aF0.0
aF0.0
aF0.0
aF0.0
aF0.0
aF0.0
aF0.0
aF0.0
aF0.0
asS's__Firmicutes_bacterium_CAG_83'
p621
(lp622
F32.900891614162745
aF0.0
aF12273.603682081113
aF3250.6990247902927
aF130.8063571889594
aF412.6001237800371
aF0.0
aF0.0
aF595.7000000000003
aF449.9114727425549
aF3574.497855301286
aF144.31062126172483
aF10444.094777952612
aF5045.476691245707
aF502.1000502100051
aF248.99995020000998
aF0.0
aF657.3252653684418
aF10199.496940150919
aF3712.0996287900366
aF674.5658376257525
aF0.0
aF0.0
aF304.437263121006
asS's__Phascolarctobacterium_succinatutens'
p623
(lp624
F0.0
aF0.0
aF0.0
aF0.0
aF0.0
aF0.0
aF0.0
aF0.0
aF0.0
aF0.0
aF0.0
aF0.0
aF0.0
aF0.0
aF0.0
aF0.0
aF0.0
aF0.0
aF0.0
aF0.0
aF4947.582884089489
aF0.0
aF0.0
aF0.0
asS's__Firmicutes_bacterium_CAG_170'
p625
(lp626
F0.0
aF0.0
aF4401.701320510399
aF0.0
aF12193.992628041724
aF0.0
aF0.0
aF0.0
aF8500.800000000003
aF0.0
aF0.0
aF2034.849764942699
aF12239.493880253063
aF0.0
aF0.0
aF0.0
aF2294.9567073388494
aF0.0
aF0.0
aF0.0
aF342.83346054574935
aF0.0
aF0.0
aF682.0834870188111
asS's__Butyrivibrio_sp_CAG_318'
p627
(lp628
F0.0
aF0.0
aF0.0
aF0.0
aF0.0
aF0.0
aF1973.5271529753074
aF0.0
aF191.2000000000001
aF0.0
aF0.0
aF0.0
aF0.0
aF0.0
aF0.0
aF0.0
aF0.0
aF0.0
aF0.0
aF0.0
aF0.0
aF0.0
aF0.0
aF0.0
asS's__Veillonella_infantium'
p629
(lp630
F0.0
aF0.0
aF0.0
aF0.0
aF0.0
aF0.0
aF0.0
aF6001.82044316257
aF0.0
aF0.0
aF0.0
aF0.0
aF0.0
aF19.00028880438983
aF0.0
aF0.0
aF0.0
aF0.0
aF0.0
aF0.0
aF243.72378744165437
aF15.201939767514332
aF52.71215542304054
aF0.0
asS's__Ruminococcus_sp_CAG_488'
p631
(lp632
F0.0
aF0.0
aF0.0
aF0.0
aF0.0
aF0.0
aF0.0
aF0.0
aF4309.700000000002
aF0.0
aF0.0
aF0.0
aF0.0
aF0.0
aF0.0
aF0.0
aF0.0
aF0.0
aF0.0
aF0.0
aF0.0
aF0.0
aF0.0
aF0.0
asS's__Veillonella_sp_T11011_6'
p633
(lp634
F0.0
aF0.0
aF0.0
aF0.0
aF0.0
aF0.0
aF0.0
aF132.04665208218066
aF0.0
aF0.0
aF0.0
aF0.0
aF0.0
aF0.0
aF0.0
aF0.0
aF0.0
aF0.0
aF0.0
aF0.0
aF145.51420218613342
aF0.0
aF0.0
aF0.0
asS's__Oscillibacter_sp_57_20'
p635
(lp636
F2432.9659333767945
aF358.6000717200143
aF64044.01921320581
aF15272.095418371375
aF18064.477933627575
aF7291.602187480656
aF6523.250826170092
aF0.0
aF34052.10000000002
aF2267.6578252745444
aF1928.7988427206942
aF12252.401776770766
aF19383.390308304846
aF22281.138673307833
aF3806.600380660039
aF896.8998206200359
aF26096.741913756403
aF21928.714970620433
aF31945.79041626288
aF11230.698876930112
aF11492.821699397866
aF5232.167624588897
aF13.103021556770988
aF1879.3300299956716
asS's__Bacteroides_faecis'
p637
(lp638
F488.9132495490628
aF243.2000486400097
aF4571.401371420414
aF0.0
aF0.0
aF0.0
aF0.0
aF0.0
aF0.0
aF2412.661522868833
aF29125.582524650483
aF0.0
aF10439.094780452611
aF41.300627769542096
aF0.0
aF0.0
aF0.0
aF0.0
aF0.0
aF5760.8994239100575
aF0.0
aF13074.76834044024
aF0.0
aF0.0
asS's__Parabacteroides_distasonis'
p639
(lp640
F935.925363577353
aF1307.8002615600521
aF9584.902875470869
aF30759.39077218277
aF400.8194798267196
aF5248.701574610473
aF37058.06538332562
aF0.0
aF3704.6000000000017
aF2399.9611990105745
aF6165.296300822219
aF343.52528346086257
aF12629.793685103159
aF21177.02189073274
aF6704.100670410069
aF612.4998775000246
aF10280.037538012939
aF105.23606439926964
aF11871.496438551068
aF11168.698883130111
aF4462.635553229997
aF12519.197449594567
aF6012.686525512782
aF0.0
asS's__Lactococcus_lactis'
p641
(lp642
F0.0
aF0.0
aF0.0
aF0.0
aF0.0
aF0.0
aF48.50558299260245
aF0.0
aF0.0
aF0.0
aF200.99987940007233
aF142.51048877197357
aF0.0
aF0.0
aF75.00000750000076
aF42.3999915200017
aF0.0
aF82.92841956938643
aF0.0
aF0.0
aF20.101961951486473
aF0.0
aF0.0
aF2559.1132354600204
asS's__Anaerotignum_lactatifermentans'
p643
(lp644
F0.0
aF0.0
aF0.0
aF530.9998407000478
aF0.0
aF0.0
aF0.0
aF0.0
aF0.0
aF0.0
aF0.0
aF0.0
aF0.0
aF0.0
aF0.0
aF0.0
aF0.0
aF0.0
aF0.0
aF0.0
aF0.0
aF0.0
aF0.0
aF0.0
assS'subclass_sl'
p645
(dp646
g12
(I12
I24
tp647
sg10
(I0
I12
tp648
ssS'norm'
p649
F1000000.0
sS'cls'
p650
(dp651
S'class'
p652
(S'Mild'
p653
S'Mild'
p654
S'Mild'
p655
S'Mild'
p656
S'Mild'
p657
S'Mild'
p658
S'Mild'
p659
S'Mild'
p660
S'Mild'
p661
S'Mild'
p662
S'Mild'
p663
g3
S'Moderate'
p664
S'Moderate'
p665
S'Moderate'
p666
S'Moderate'
p667
S'Moderate'
p668
S'Moderate'
p669
S'Moderate'
p670
S'Moderate'
p671
S'Moderate'
p672
S'Moderate'
p673
S'Moderate'
p674
g5
tp675
sS'subclass'
p676
(lp677
S'Mild_subcl'
p678
aS'Mild_subcl'
p679
aS'Mild_subcl'
p680
aS'Mild_subcl'
p681
aS'Mild_subcl'
p682
aS'Mild_subcl'
p683
aS'Mild_subcl'
p684
aS'Mild_subcl'
p685
aS'Mild_subcl'
p686
aS'Mild_subcl'
p687
aS'Mild_subcl'
p688
ag10
aS'Moderate_subcl'
p689
aS'Moderate_subcl'
p690
aS'Moderate_subcl'
p691
aS'Moderate_subcl'
p692
aS'Moderate_subcl'
p693
aS'Moderate_subcl'
p694
aS'Moderate_subcl'
p695
aS'Moderate_subcl'
p696
aS'Moderate_subcl'
p697
aS'Moderate_subcl'
p698
aS'Moderate_subcl'
p699
ag12
ass.